(lp1
ccollections
Counter
p2
((dp3
S'\x80'
I7
sS'\x89'
I1
sS'\x91'
I1
sS'\x94'
I2
sS'\x98'
I2
sS'\x9d'
I1
sS'\xa1'
I1
sS'*'
I2
sS':'
I2
sS'\xc3'
I2
sS'\xc4'
I3
sS'\xc7'
I3
sS'\xc9'
I1
sS'\xe2'
I3
sS'a'
I6920
sS'c'
I840
sS'b'
I1030
sS'e'
I3999
sS'd'
I2493
sS'g'
I3510
sS'f'
I460
sS'i'
I7872
sS'h'
I4069
sS'k'
I376
sS'j'
I1099
sS'm'
I1080
sS'l'
I1278
sS'o'
I3876
sS'n'
I6684
sS'q'
I939
sS'p'
I293
sS's'
I1685
sS'r'
I547
sS'u'
I4704
sS't'
I836
sS'w'
I967
sS'v'
I17
sS'y'
I1860
sS'x'
I974
sS'z'
I1701
stRp4
ag2
((dp5
S'gw'
p6
I13
sS'gu'
p7
I281
sS'gt'
p8
I9
sS'gs'
p9
I42
sS'gr'
p10
I29
sS'gq'
p11
I61
sS'gp'
p12
I24
sS'gz'
p13
I128
sS'gy'
p14
I103
sS'gx'
p15
I79
sS'gg'
p16
I45
sS'gf'
p17
I31
sS'ge'
p18
I348
sS'gd'
p19
I85
sS'gc'
p20
I88
sS'gb'
p21
I67
sS'ga'
p22
I117
sS'go'
p23
I41
sS'gn'
p24
I12
sS'gm'
p25
I38
sS'gl'
p26
I64
sS'gk'
p27
I21
sS'gj'
p28
I55
sS'gi'
p29
I1
sS'gh'
p30
I51
sS'tu'
p31
I72
sS'to'
p32
I118
sS'th'
p33
I13
sS'ti'
p34
I204
sS'te'
p35
I21
sS'ta'
p36
I408
sS'do'
p37
I142
sS'di'
p38
I304
sS'de'
p39
I301
sS'g:'
p40
I1
sS'da'
p41
I683
sS'du'
p42
I264
sS'qu'
p43
I171
sS'qi'
p44
I768
sS'zo'
p45
I66
sS'zh'
p46
I929
sS'zi'
p47
I274
sS'ze'
p48
I40
sS'za'
p49
I249
sS'zu'
p50
I143
sS'\xe2\x80'
p51
I3
sS'\xc9\xa1'
p52
I1
sS'g\xc9'
p53
I1
sS'we'
p54
I154
sS'wa'
p55
I172
sS'wo'
p56
I534
sS'ju'
p57
I90
sS'wu'
p58
I107
sS'jo'
p59
I1
sS'ji'
p60
I1008
sS'ci'
p61
I54
sS'ch'
p62
I580
sS'co'
p63
I81
sS'ca'
p64
I50
sS'ce'
p65
I17
sS'\x80\x94'
p66
I2
sS'cu'
p67
I58
sS'\x80\x9d'
p68
I1
sS'pp'
p69
I1
sS'pu'
p70
I18
sS'pa'
p71
I120
sS'pe'
p72
I36
sS'ph'
p73
I4
sS'pi'
p74
I94
sS'po'
p75
I19
sS'me'
p76
I418
sS'ma'
p77
I200
sS'mo'
p78
I19
sS'mi'
p79
I153
sS'mu'
p80
I271
sS'iy'
p81
I148
sS'ix'
p82
I50
sS'iz'
p83
I166
sS've'
p84
I15
sS'iq'
p85
I109
sS'ip'
p86
I17
sS'is'
p87
I95
sS'ir'
p88
I45
sS'iu'
p89
I214
sS'it'
p90
I39
sS'iw'
p91
I27
sS'ih'
p92
I209
sS'ik'
p93
I28
sS'ij'
p94
I151
sS'im'
p95
I68
sS'il'
p96
I137
sS'io'
p97
I6
sS'in'
p98
I1142
sS'ia'
p99
I1709
sS'ic'
p100
I74
sS'ib'
p101
I77
sS'ie'
p102
I198
sS'id'
p103
I158
sS'ig'
p104
I35
sS'if'
p105
I88
sS'\xc7\x98'
p106
I2
sS'fr'
p107
I13
sS'fu'
p108
I149
sS'\xc4\x80'
p109
I3
sS'fa'
p110
I192
sS'\xa1u'
p111
I1
sS'fe'
p112
I90
sS'fi'
p113
I1
sS'fo'
p114
I2
sS'ot'
p115
I19
sS'\x80i'
p116
I2
sS'\x80n'
p117
I2
sS'su'
p118
I154
sS'si'
p119
I52
sS'sh'
p120
I1388
sS'so'
p121
I14
sS'sa'
p122
I44
sS'se'
p123
I26
sS'\xc7\x91'
p124
I1
sS'e\xe2'
p125
I1
sS'\x91u'
p126
I1
sS'le'
p127
I365
sS'la'
p128
I324
sS'lo'
p129
I34
sS'li'
p130
I480
sS'lv'
p131
I2
sS'lu'
p132
I62
sS'yi'
p133
I736
sS'yo'
p134
I393
sS'ya'
p135
I262
sS'ye'
p136
I225
sS'yu'
p137
I218
sS'em'
p138
I15
sS'el'
p139
I34
sS'eo'
p140
I8
sS'en'
p141
I1344
sS'ei'
p142
I398
sS'eh'
p143
I36
sS'ek'
p144
I9
sS'ej'
p145
I37
sS'ed'
p146
I93
sS'eg'
p147
I29
sS'ef'
p148
I16
sS'ea'
p149
I8
sS'ec'
p150
I28
sS'eb'
p151
I48
sS'ey'
p152
I94
sS'ex'
p153
I65
sS'ez'
p154
I39
sS'eu'
p155
I4
sS'et'
p156
I12
sS'ew'
p157
I2
sS'eq'
p158
I10
sS'ep'
p159
I3
sS'es'
p160
I70
sS'er'
p161
I177
sS'ru'
p162
I20
sS'o*'
p163
I2
sS'rs'
p164
I30
sS'rx'
p165
I1
sS'ry'
p166
I1
sS'rz'
p167
I7
sS'rd'
p168
I26
sS're'
p169
I189
sS'ra'
p170
I120
sS'rb'
p171
I1
sS'ro'
p172
I33
sS'rh'
p173
I1
sS'ri'
p174
I28
sS'rj'
p175
I1
sS'be'
p176
I80
sS'ba'
p177
I407
sS'bo'
p178
I29
sS'bi'
p179
I191
sS'bu'
p180
I296
sS'by'
p181
I26
sS'oo'
p182
I13
sS'on'
p183
I481
sS'om'
p184
I139
sS'ol'
p185
I69
sS'ok'
p186
I17
sS'oj'
p187
I55
sS'oi'
p188
I1
sS'oh'
p189
I39
sS'og'
p190
I16
sS'of'
p191
I30
sS'oe'
p192
I23
sS'od'
p193
I36
sS'oc'
p194
I23
sS'ob'
p195
I26
sS'oa'
p196
I3
sS'oz'
p197
I69
sS'oy'
p198
I90
sS'ox'
p199
I65
sS'ow'
p200
I7
sS'ov'
p201
I13
sS'ou'
p202
I891
sS'\x9dn'
p203
I1
sS'os'
p204
I84
sS'or'
p205
I5
sS'oq'
p206
I37
sS'op'
p207
I6
sS'\xc3\x89'
p208
I1
sS'xi'
p209
I822
sS'l\xc7'
p210
I2
sS'\xc3\x80'
p211
I1
sS'xu'
p212
I152
sS'u:'
p213
I1
sS'\x89r'
p214
I1
sS'hu'
p215
I968
sS'hi'
p216
I825
sS'ho'
p217
I380
sS'ha'
p218
I848
sS'hd'
p219
I1
sS'he'
p220
I1046
sS'uy'
p221
I56
sS'ux'
p222
I43
sS'uz'
p223
I86
sS'ut'
p224
I26
sS'uw'
p225
I12
sS'uq'
p226
I347
sS'up'
p227
I11
sS'us'
p228
I97
sS'ur'
p229
I28
sS'um'
p230
I40
sS'ul'
p231
I101
sS'uo'
p232
I596
sS'un'
p233
I147
sS'ui'
p234
I359
sS'uh'
p235
I20
sS'uk'
p236
I13
sS'uj'
p237
I76
sS'ue'
p238
I200
sS'ud'
p239
I69
sS'ug'
p240
I49
sS'uf'
p241
I21
sS'ua'
p242
I585
sS'uc'
p243
I30
sS'ub'
p244
I25
sS'ac'
p245
I15
sS'ab'
p246
I53
sS'ae'
p247
I1
sS'ad'
p248
I33
sS'ag'
p249
I13
sS'af'
p250
I2
sS'ai'
p251
I914
sS'ah'
p252
I14
sS'ak'
p253
I12
sS'aj'
p254
I25
sS'am'
p255
I94
sS'al'
p256
I78
sS'ao'
p257
I1269
sS'an'
p258
I3116
sS'aq'
p259
I11
sS'ap'
p260
I28
sS'as'
p261
I60
sS'ar'
p262
I11
sS'at'
p263
I39
sS'aw'
p264
I23
sS'ay'
p265
I23
sS'ax'
p266
I40
sS'az'
p267
I54
sS'nh'
p268
I30
sS'ni'
p269
I201
sS'nj'
p270
I92
sS'nk'
p271
I17
sS'nl'
p272
I74
sS'nm'
p273
I102
sS'nn'
p274
I6
sS'no'
p275
I23
sS'na'
p276
I243
sS'nb'
p277
I20
sS'nc'
p278
I35
sS'nd'
p279
I89
sS'ne'
p280
I35
sS'nf'
p281
I19
sS'ng'
p282
I2751
sS'nx'
p283
I28
sS'ny'
p284
I70
sS'nz'
p285
I140
sS'np'
p286
I3
sS'nq'
p287
I65
sS'nr'
p288
I25
sS'ns'
p289
I157
sS'nt'
p290
I29
sS'nu'
p291
I8
sS'nv'
p292
I2
sS'nw'
p293
I60
sS'ka'
p294
I137
sS'ke'
p295
I94
sS'ki'
p296
I1
sS'ko'
p297
I39
sS'ku'
p298
I91
stRp299
ag2
((dp300
S'nwu'
p301
I15
sS'ali'
p302
I41
sS'ale'
p303
I5
sS'ala'
p304
I17
sS'nwe'
p305
I43
sS'nwa'
p306
I2
sS'alu'
p307
I12
sS'jig'
p308
I1
sS'ila'
p309
I33
sS'faz'
p310
I1
sS'iuh'
p311
I2
sS'fax'
p312
I4
sS'iuj'
p313
I2
sS'ium'
p314
I1
sS'iul'
p315
I3
sS'me\xe2'
p316
I1
sS'fas'
p317
I1
sS'iuc'
p318
I2
sS'iug'
p319
I3
sS'iux'
p320
I5
sS'fah'
p321
I1
sS'iuz'
p322
I5
sS'fan'
p323
I150
sS'fal'
p324
I2
sS'fam'
p325
I2
sS'iuq'
p326
I3
sS'aiy'
p327
I17
sS'ius'
p328
I10
sS'iur'
p329
I1
sS'fag'
p330
I1
sS'fad'
p331
I5
sS'fus'
p332
I3
sS'upi'
p333
I11
sS'fuq'
p334
I66
sS'keo'
p335
I3
sS'iyo'
p336
I65
sS'buz'
p337
I7
sS'tei'
p338
I1
sS'ten'
p339
I3
sS'teo'
p340
I1
sS'aiq'
p341
I2
sS'teb'
p342
I11
sS'tec'
p343
I3
sS'nbu'
p344
I14
sS'nbi'
p345
I1
sS'pim'
p346
I2
sS'nba'
p347
I2
sS'fuy'
p348
I1
sS'teu'
p349
I1
sS'nbe'
p350
I3
sS'nen'
p351
I21
sS'aba'
p352
I39
sS'nem'
p353
I1
sS'abe'
p354
I3
sS'sua'
p355
I14
sS'nei'
p356
I3
sS'suo'
p357
I56
sS'sun'
p358
I1
sS'puk'
p359
I1
sS'kus'
p360
I3
sS'eic'
p361
I33
sS'kuq'
p362
I1
sS'kuo'
p363
I2
sS'kun'
p364
I7
sS'kul'
p365
I2
sS'kuk'
p366
I1
sS'abu'
p367
I7
sS'kui'
p368
I7
sS'kuh'
p369
I1
sS'neu'
p370
I1
sS'ner'
p371
I4
sS'kua'
p372
I52
sS'ggu'
p373
I31
sS'med'
p374
I4
sS'meo'
p375
I1
sS'men'
p376
I243
sS'mei'
p377
I88
sS'gge'
p378
I5
sS'gga'
p379
I9
sS'buy'
p380
I10
sS'mey'
p381
I5
sS'ful'
p382
I1
sS'gli'
p383
I12
sS'gni'
p384
I12
sS'glo'
p385
I11
sS'gla'
p386
I2
sS'gle'
p387
I39
sS'aku'
p388
I3
sS'hec'
p389
I3
sS'\x91ue'
p390
I1
sS'fuh'
p391
I1
sS'aka'
p392
I8
sS'puz'
p393
I1
sS'pin'
p394
I40
sS'pia'
p395
I31
sS'put'
p396
I1
sS'eya'
p397
I15
sS'eye'
p398
I12
sS'eyi'
p399
I44
sS'eyo'
p400
I4
sS'eyu'
p401
I19
sS'nka'
p402
I4
sS'nke'
p403
I3
sS'nko'
p404
I5
sS'nku'
p405
I5
sS'dey'
p406
I1
sS'gqi'
p407
I50
sS'ers'
p408
I30
sS'pid'
p409
I1
sS'erx'
p410
I1
sS'ery'
p411
I1
sS'erz'
p412
I7
sS'erd'
p413
I26
sS'ere'
p414
I44
sS'del'
p415
I4
sS'era'
p416
I1
sS'erb'
p417
I1
sS'deb'
p418
I1
sS'ero'
p419
I2
sS'erh'
p420
I1
sS'erj'
p421
I1
sS'deg'
p422
I1
sS'uay'
p423
I1
sS'uax'
p424
I7
sS'uaz'
p425
I6
sS'uaq'
p426
I1
sS'uap'
p427
I3
sS'uas'
p428
I2
sS'uat'
p429
I5
sS'uai'
p430
I75
sS'uaj'
p431
I4
sS'ual'
p432
I3
sS'g\xc9\xa1'
p433
I1
sS'uan'
p434
I420
sS'uac'
p435
I3
sS'uab'
p436
I1
sS'uad'
p437
I4
sS'uag'
p438
I1
sS'ena'
p439
I1
sS'enc'
p440
I1
sS'end'
p441
I2
sS'ene'
p442
I2
sS'enf'
p443
I2
sS'eng'
p444
I442
sS'hon'
p445
I119
sS'eni'
p446
I2
sS'enj'
p447
I6
sS'enk'
p448
I1
sS'enl'
p449
I8
sS'enm'
p450
I73
sS'hoi'
p451
I1
sS'oyo'
p452
I5
sS'enr'
p453
I1
sS'hou'
p454
I259
sS'ent'
p455
I7
sS'hos'
p456
I1
sS'oyi'
p457
I16
sS'enw'
p458
I18
sS'enx'
p459
I7
sS'eny'
p460
I7
sS'enz'
p461
I11
sS'oya'
p462
I4
sS'lan'
p463
I8
sS'lao'
p464
I121
sS'lai'
p465
I169
sS'lab'
p466
I2
sS'uwu'
p467
I5
sS'laz'
p468
I10
sS'ove'
p469
I13
sS'isa'
p470
I1
sS'egu'
p471
I15
sS'ego'
p472
I3
sS'uwo'
p473
I6
sS'ege'
p474
I11
sS'wus'
p475
I1
sS'ito'
p476
I4
sS'wup'
p477
I1
sS'wuw'
p478
I1
sS'iti'
p479
I24
sS'iha'
p480
I7
sS'wuz'
p481
I46
sS'zei'
p482
I1
sS'zen'
p483
I32
sS'zem'
p484
I1
sS'zer'
p485
I1
sS'wud'
p486
I3
sS'wuj'
p487
I4
sS'itu'
p488
I2
sS'uos'
p489
I4
sS'uor'
p490
I1
sS'uoq'
p491
I19
sS'uop'
p492
I1
sS'uow'
p493
I2
sS'uou'
p494
I1
sS'uot'
p495
I2
sS'imi'
p496
I37
sS'uoz'
p497
I32
sS'uoy'
p498
I22
sS'uox'
p499
I2
sS'imo'
p500
I1
sS'iut'
p501
I2
sS'uoc'
p502
I1
sS'uob'
p503
I11
sS'fia'
p504
I1
sS'uog'
p505
I5
sS'uof'
p506
I3
sS'uoe'
p507
I23
sS'uod'
p508
I3
sS'uoj'
p509
I8
sS'uoh'
p510
I12
sS'uon'
p511
I1
sS'uom'
p512
I5
sS'uol'
p513
I15
sS'uhe'
p514
I3
sS'oku'
p515
I1
sS'uha'
p516
I4
sS'cen'
p517
I16
sS'gua'
p518
I75
sS'oka'
p519
I3
sS'jiu'
p520
I143
sS'uhu'
p521
I13
sS'buj'
p522
I30
sS'ifu'
p523
I15
sS'ife'
p524
I6
sS'ifa'
p525
I67
sS'dif'
p526
I23
sS'buk'
p527
I1
sS'dia'
p528
I58
sS'gfa'
p529
I9
sS'gfe'
p530
I9
sS'iza'
p531
I3
sS'gon'
p532
I35
sS'aoy'
p533
I68
sS'izh'
p534
I90
sS'izi'
p535
I63
sS'aju'
p536
I3
sS'izo'
p537
I1
sS'aji'
p538
I22
sS'izu'
p539
I9
sS'gou'
p540
I5
sS'gpo'
p541
I1
sS'pun'
p542
I1
sS'ial'
p543
I44
sS'ntu'
p544
I6
sS'iao'
p545
I384
sS'puc'
p546
I1
sS'nti'
p547
I14
sS'ian'
p548
I1041
sS'nto'
p549
I7
sS'ima'
p550
I6
sS'nta'
p551
I2
sS'ash'
p552
I58
sS'pur'
p553
I2
sS'gpi'
p554
I6
sS'xur'
p555
I1
sS'ata'
p556
I10
sS'ato'
p557
I4
sS'iaj'
p558
I1
sS'xux'
p559
I2
sS'xuy'
p560
I2
sS'isu'
p561
I3
sS'ati'
p562
I24
sS'xud'
p563
I14
sS'xue'
p564
I113
sS'isi'
p565
I10
sS'ish'
p566
I74
sS'xua'
p567
I4
sS'xum'
p568
I3
sS'xun'
p569
I1
sS'ise'
p570
I6
sS'nhe'
p571
I2
sS'nha'
p572
I2
sS'equ'
p573
I1
sS'nho'
p574
I12
sS'nhu'
p575
I14
sS'yij'
p576
I31
sS'kex'
p577
I1
sS'xia'
p578
I463
sS'xib'
p579
I1
sS'xic'
p580
I1
sS'xie'
p581
I61
sS'xif'
p582
I10
sS'xig'
p583
I1
sS'xih'
p584
I25
sS'gpe'
p585
I1
sS'xil'
p586
I3
sS'gpa'
p587
I16
sS'xin'
p588
I184
sS'tou'
p589
I82
sS'eqi'
p590
I9
sS'xir'
p591
I1
sS'xis'
p592
I2
sS'ton'
p593
I35
sS'xiu'
p594
I15
sS'tol'
p595
I1
sS'xiw'
p596
I1
sS'xix'
p597
I2
sS'iay'
p598
I1
sS'xiz'
p599
I2
sS'kou'
p600
I17
sS'gya'
p601
I21
sS'gyo'
p602
I25
sS'yir'
p603
I1
sS'ncu'
p604
I1
sS'gyi'
p605
I42
sS'ime'
p606
I23
sS'nch'
p607
I31
sS'nci'
p608
I2
sS'gyu'
p609
I15
sS'nca'
p610
I1
sS'uke'
p611
I5
sS'iaq'
p612
I7
sS'nza'
p613
I9
sS'ias'
p614
I1
sS'nze'
p615
I1
sS'\xc7\x91u'
p616
I1
sS'nzh'
p617
I70
sS'oqu'
p618
I18
sS'ran'
p619
I117
sS'rao'
p620
I1
sS'ram'
p621
I1
sS'uet'
p622
I9
sS'oqi'
p623
I19
sS'lie'
p624
I3
sS'lig'
p625
I3
sS'lia'
p626
I149
sS'lib'
p627
I8
sS'lil'
p628
I11
sS'lim'
p629
I8
sS'lin'
p630
I25
sS'udu'
p631
I23
sS'lih'
p632
I4
sS'efu'
p633
I4
sS'lij'
p634
I1
sS'lik'
p635
I14
sS'liu'
p636
I36
sS'liw'
p637
I3
sS'liq'
p638
I26
sS'lir'
p639
I3
sS'lis'
p640
I2
sS'efa'
p641
I4
sS'lix'
p642
I2
sS'efe'
p643
I8
sS'liz'
p644
I4
sS'sug'
p645
I3
sS'kai'
p646
I45
sS'kao'
p647
I11
sS'kan'
p648
I78
sS'kal'
p649
I1
sS'sud'
p650
I3
sS'don'
p651
I52
sS'exi'
p652
I64
sS'exu'
p653
I1
sS'abi'
p654
I4
sS'dou'
p655
I90
sS'ugo'
p656
I3
sS'\xc4\x80n'
p657
I1
sS'uga'
p658
I2
sS'ude'
p659
I8
sS'uge'
p660
I4
sS'suj'
p661
I2
sS'sui'
p662
I60
sS'ugu'
p663
I39
sS'oji'
p664
I55
sS'iey'
p665
I2
sS'och'
p666
I23
sS'iez'
p667
I8
sS'oga'
p668
I1
sS'ies'
p669
I14
sS'ier'
p670
I14
sS'udo'
p671
I1
sS'iek'
p672
I3
sS'iej'
p673
I7
sS'iem'
p674
I1
sS'iel'
p675
I1
sS'ien'
p676
I2
sS'sus'
p677
I4
sS'iec'
p678
I1
sS'ieb'
p679
I4
sS'ied'
p680
I18
sS'ieg'
p681
I10
sS'il\xc7'
p682
I2
sS'his'
p683
I7
sS'hit'
p684
I3
sS'hiw'
p685
I6
sS'hix'
p686
I13
sS'hiy'
p687
I25
sS'hiz'
p688
I19
sS'hib'
p689
I7
sS'hic'
p690
I7
sS'hid'
p691
I55
sS'hie'
p692
I6
sS'hif'
p693
I19
sS'hig'
p694
I1
sS'hih'
p695
I88
sS'hij'
p696
I28
sS'hik'
p697
I3
sS'hil'
p698
I11
sS'him'
p699
I1
sS'eme'
p700
I4
sS'baw'
p701
I1
sS'ema'
p702
I3
sS'bas'
p703
I1
sS'oxu'
p704
I4
sS'emo'
p705
I1
sS'baz'
p706
I1
sS'emu'
p707
I2
sS'bab'
p708
I33
sS'oxi'
p709
I61
sS'ban'
p710
I102
sS'bao'
p711
I69
sS'baj'
p712
I2
sS'bai'
p713
I30
sS'set'
p714
I1
sS'aop'
p715
I3
sS'sey'
p716
I3
sS'nun'
p717
I2
sS'nuo'
p718
I1
sS'nul'
p719
I2
sS'sed'
p720
I6
sS'seb'
p721
I1
sS'atu'
p722
I1
sS'seo'
p723
I2
sS'sen'
p724
I2
sS'sek'
p725
I1
sS'sej'
p726
I1
sS'sei'
p727
I1
sS'nua'
p728
I2
sS'mut'
p729
I9
sS'muq'
p730
I222
sS'woz'
p731
I3
sS'wot'
p732
I2
sS'wow'
p733
I2
sS'iru'
p734
I2
sS'wom'
p735
I104
sS'mub'
p736
I8
sS'mul'
p737
I2
sS'muo'
p738
I1
sS'ire'
p739
I9
sS'ome'
p740
I106
sS'omi'
p741
I10
sS'ika'
p742
I13
sS'ozh'
p743
I60
sS'omu'
p744
I10
sS'ozi'
p745
I5
sS'iko'
p746
I1
sS'nzi'
p747
I60
sS'unq'
p748
I2
sS'unr'
p749
I1
sS'uns'
p750
I3
sS'unt'
p751
I3
sS'cov'
p752
I13
sS'uny'
p753
I1
sS'unz'
p754
I11
sS'ili'
p755
I39
sS'una'
p756
I5
sS'unb'
p757
I1
sS'unc'
p758
I3
sS'und'
p759
I10
sS'unf'
p760
I6
sS'ung'
p761
I2
sS'uni'
p762
I6
sS'\x80\x9dn'
p763
I1
sS'unl'
p764
I7
sS'gma'
p765
I14
sS'unn'
p766
I2
sS'con'
p767
I67
sS'can'
p768
I10
sS'pie'
p769
I1
sS'anf'
p770
I11
sS'key'
p771
I31
sS'gxu'
p772
I11
sS'ele'
p773
I2
sS'duh'
p774
I1
sS'dui'
p775
I72
sS'duj'
p776
I5
sS'dun'
p777
I3
sS'duo'
p778
I94
sS'dua'
p779
I30
sS'dub'
p780
I1
sS'nqu'
p781
I28
sS'fro'
p782
I13
sS'dug'
p783
I9
sS'kon'
p784
I21
sS'duz'
p785
I4
sS'duq'
p786
I9
sS'aoz'
p787
I29
sS'dus'
p788
I4
sS'duw'
p789
I1
sS'nro'
p790
I1
sS'nra'
p791
I2
sS'nre'
p792
I14
sS'gao'
p793
I45
sS'gan'
p794
I44
sS'gam'
p795
I1
sS'gai'
p796
I21
sS'gag'
p797
I1
sS'nru'
p798
I1
sS'iye'
p799
I8
sS'fuw'
p800
I4
sS'iya'
p801
I36
sS'aix'
p802
I4
sS'aiz'
p803
I65
sS'ait'
p804
I3
sS'aiw'
p805
I4
sS'fuz'
p806
I2
sS'aip'
p807
I13
sS'ais'
p808
I29
sS'air'
p809
I3
sS'aim'
p810
I17
sS'ail'
p811
I32
sS'ain'
p812
I9
sS'aih'
p813
I3
sS'aik'
p814
I1
sS'aij'
p815
I3
sS'fun'
p816
I3
sS'aid'
p817
I9
sS'aig'
p818
I11
sS'aif'
p819
I3
sS'fuj'
p820
I3
sS'aic'
p821
I4
sS'aib'
p822
I7
sS'riz'
p823
I2
sS'rij'
p824
I13
sS'rib'
p825
I3
sS'ing'
p826
I577
sS'ewa'
p827
I1
sS'ewe'
p828
I1
sS'ama'
p829
I10
sS'nin'
p830
I4
sS'nim'
p831
I7
sS'nib'
p832
I1
sS'nia'
p833
I141
sS'nie'
p834
I2
sS'niz'
p835
I1
sS'bob'
p836
I2
sS'nit'
p837
I2
sS'niu'
p838
I2
sS'gsu'
p839
I1
sS'yan'
p840
I141
sS'gse'
p841
I4
sS'epi'
p842
I1
sS'gsh'
p843
I33
sS'the'
p844
I13
sS'epe'
p845
I2
sS'gso'
p846
I4
sS'yeh'
p847
I3
sS'yel'
p848
I3
sS'yen'
p849
I1
sS'mie'
p850
I2
sS'yec'
p851
I2
sS'yed'
p852
I2
sS'yey'
p853
I11
sS'yex'
p854
I1
sS'eus'
p855
I1
sS'hah'
p856
I2
sS'hai'
p857
I91
sS'haj'
p858
I2
sS'eli'
p859
I19
sS'hal'
p860
I1
sS'han'
p861
I509
sS'hao'
p862
I202
sS'hab'
p863
I6
sS'ela'
p864
I12
sS'had'
p865
I2
sS'hag'
p866
I1
sS'hay'
p867
I2
sS'cua'
p868
I5
sS'cuo'
p869
I7
sS'cun'
p870
I31
sS'has'
p871
I3
sS'hat'
p872
I11
sS'cui'
p873
I9
sS'elu'
p874
I1
sS'bin'
p875
I33
sS'bij'
p876
I23
sS'bie'
p877
I35
sS'bib'
p878
I1
sS'bia'
p879
I74
sS'cho'
p880
I15
sS'biz'
p881
I1
sS'opa'
p882
I2
sS'bix'
p883
I1
sS'biy'
p884
I6
sS'bit'
p885
I1
sS'opo'
p886
I2
sS'opi'
p887
I2
sS'miu'
p888
I1
sS'qux'
p889
I2
sS'ola'
p890
I10
sS'ole'
p891
I43
sS'oli'
p892
I8
sS'olu'
p893
I3
sS'iji'
p894
I145
sS'umu'
p895
I12
sS'fou'
p896
I1
sS'ici'
p897
I5
sS'ich'
p898
I64
sS'rhu'
p899
I1
sS'ume'
p900
I6
sS'pen'
p901
I28
sS'peo'
p902
I1
sS'uma'
p903
I1
sS'pei'
p904
I7
sS'umi'
p905
I20
sS'icu'
p906
I5
sS'ruh'
p907
I2
sS'rui'
p908
I1
sS'run'
p909
I1
sS'ruo'
p910
I3
sS'rul'
p911
I1
sS'ufa'
p912
I1
sS'rua'
p913
I1
sS'rug'
p914
I9
sS'l\xc7\x98'
p915
I2
sS'rus'
p916
I1
sS'ufu'
p917
I7
sS'obo'
p918
I2
sS'obi'
p919
I3
sS'obe'
p920
I1
sS'oba'
p921
I16
sS'ido'
p922
I3
sS'zua'
p923
I4
sS'zuf'
p924
I5
sS'zug'
p925
I1
sS'idi'
p926
I60
sS'zui'
p927
I35
sS'zun'
p928
I3
sS'zuo'
p929
I92
sS'ida'
p930
I76
sS'nsh'
p931
I146
sS'nsi'
p932
I1
sS'aha'
p933
I5
sS'ahe'
p934
I3
sS'ziz'
p935
I9
sS'sol'
p936
I1
sS'son'
p937
I11
sS'sou'
p938
I1
sS'ppu'
p939
I1
sS'ahu'
p940
I6
sS'ush'
p941
I95
sS'nsu'
p942
I4
sS'iju'
p943
I6
sS'wan'
p944
I117
sS'ixi'
p945
I47
sS'wai'
p946
I43
sS'gib'
p947
I1
sS'waw'
p948
I4
sS'ixu'
p949
I3
sS'aqu'
p950
I5
sS'aqi'
p951
I6
sS'ura'
p952
I15
sS'azh'
p953
I44
sS'azi'
p954
I10
sS'uta'
p955
I2
sS'zhu'
p956
I145
sS'iqu'
p957
I5
sS'kos'
p958
I1
sS'uto'
p959
I22
sS'cil'
p960
I1
sS'cis'
p961
I2
sS'cir'
p962
I3
sS'ciq'
p963
I2
sS'iqi'
p964
I104
sS'zhi'
p965
I179
sS'ciy'
p966
I1
sS'zho'
p967
I101
sS'qim'
p968
I1
sS'qil'
p969
I33
sS'qio'
p970
I1
sS'qin'
p971
I450
sS'nni'
p972
I3
sS'qie'
p973
I14
sS'qig'
p974
I5
sS'qia'
p975
I117
sS'nna'
p976
I3
sS'qiy'
p977
I5
sS'qix'
p978
I2
sS'qiz'
p979
I8
sS'qiu'
p980
I12
sS'qit'
p981
I14
sS'qiw'
p982
I2
sS'qiq'
p983
I1
sS'qis'
p984
I4
sS'qir'
p985
I1
sS'nab'
p986
I3
sS'nac'
p987
I3
sS'tiy'
p988
I1
sS'tiz'
p989
I2
sS'uru'
p990
I1
sS'nah'
p991
I2
sS'nai'
p992
I21
sS'nan'
p993
I49
sS'nao'
p994
I5
sS'nal'
p995
I9
sS'nam'
p996
I12
sS'nar'
p997
I8
sS'nas'
p998
I24
sS'tin'
p999
I35
sS'naq'
p1000
I2
sS'nat'
p1001
I8
sS'gra'
p1002
I10
sS'naz'
p1003
I2
sS'tie'
p1004
I3
sS'nax'
p1005
I4
sS'nay'
p1006
I5
sS'tia'
p1007
I137
sS'gri'
p1008
I4
sS'mih'
p1009
I2
sS'nxu'
p1010
I1
sS'age'
p1011
I5
sS'aga'
p1012
I5
sS'agu'
p1013
I2
sS'nxi'
p1014
I27
sS'eda'
p1015
I21
sS'rom'
p1016
I13
sS'ron'
p1017
I12
sS'ede'
p1018
I20
sS'edi'
p1019
I30
sS'osu'
p1020
I15
sS'osi'
p1021
I1
sS'osh'
p1022
I65
sS'iyi'
p1023
I13
sS'edu'
p1024
I7
sS'rou'
p1025
I8
sS'ver'
p1026
I13
sS'piq'
p1027
I6
sS'\xc4\x80i'
p1028
I2
sS'dim'
p1029
I10
sS'din'
p1030
I21
sS'gug'
p1031
I2
sS'gud'
p1032
I2
sS'did'
p1033
I37
sS'die'
p1034
I10
sS'gui'
p1035
I11
sS'dig'
p1036
I1
sS'guo'
p1037
I151
sS'gun'
p1038
I7
sS'dib'
p1039
I4
sS'gul'
p1040
I4
sS'gus'
p1041
I9
sS'diz'
p1042
I5
sS'diu'
p1043
I5
sS'guy'
p1044
I1
sS'diw'
p1045
I2
sS'dis'
p1046
I5
sS'uem'
p1047
I1
sS'uel'
p1048
I11
sS'ueh'
p1049
I3
sS'uek'
p1050
I3
sS'uej'
p1051
I3
sS'ued'
p1052
I28
sS'uef'
p1053
I6
sS'uea'
p1054
I1
sS'uec'
p1055
I2
sS'ueb'
p1056
I4
sS'odi'
p1057
I7
sS'uey'
p1058
I6
sS'uex'
p1059
I45
sS'odo'
p1060
I5
sS'oda'
p1061
I20
sS'ueq'
p1062
I3
sS'ode'
p1063
I4
sS'ues'
p1064
I15
sS'uer'
p1065
I7
sS'dei'
p1066
I11
sS'oer'
p1067
I23
sS'dem'
p1068
I1
sS'enh'
p1069
I3
sS'den'
p1070
I60
sS'oza'
p1071
I3
sS'lei'
p1072
I11
sS'len'
p1073
I9
sS'ufe'
p1074
I13
sS'ozu'
p1075
I1
sS'\xc9\xa1u'
p1076
I1
sS'gqu'
p1077
I11
sS'rdu'
p1078
I4
sS'boz'
p1079
I2
sS'ded'
p1080
I1
sS'eka'
p1081
I8
sS'bol'
p1082
I2
sS'boo'
p1083
I13
sS'eku'
p1084
I1
sS'rdi'
p1085
I22
sS'ipa'
p1086
I6
sS'uzh'
p1087
I32
sS'uzi'
p1088
I51
sS'ipe'
p1089
I1
sS'uze'
p1090
I1
sS'ipi'
p1091
I2
sS'ipo'
p1092
I8
sS'apu'
p1093
I2
sS'api'
p1094
I15
sS'apa'
p1095
I10
sS'cha'
p1096
I214
sS'ayi'
p1097
I3
sS'che'
p1098
I113
sS'usa'
p1099
I1
sS'aye'
p1100
I4
sS'chi'
p1101
I29
sS'aya'
p1102
I11
sS'fei'
p1103
I51
sS'zid'
p1104
I1
sS'chu'
p1105
I208
sS'ayu'
p1106
I5
sS'zil'
p1107
I1
sS'zim'
p1108
I3
sS'zij'
p1109
I17
sS'ook'
p1110
I13
sS'ogu'
p1111
I13
sS'ibi'
p1112
I20
sS'iba'
p1113
I33
sS'ibe'
p1114
I11
sS'ulu'
p1115
I12
sS'\xc3\x89r'
p1116
I1
sS'cai'
p1117
I24
sS'uli'
p1118
I11
sS'cao'
p1119
I13
sS'ulo'
p1120
I4
sS'cal'
p1121
I1
sS'ula'
p1122
I36
sS'ibu'
p1123
I12
sS'ule'
p1124
I37
sS'gzo'
p1125
I1
sS'idu'
p1126
I14
sS'tap'
p1127
I1
sS'gzh'
p1128
I67
sS'gzi'
p1129
I37
sS'tae'
p1130
I1
sS'tam'
p1131
I49
sS'tan'
p1132
I44
sS'gzu'
p1133
I23
sS'tai'
p1134
I40
sS'sis'
p1135
I5
sS'tao'
p1136
I23
sS'gce'
p1137
I1
sS'gci'
p1138
I1
sS'siz'
p1139
I3
sS'siy'
p1140
I1
sS'six'
p1141
I1
sS'afa'
p1142
I2
sS'nyu'
p1143
I14
sS'sic'
p1144
I6
sS'nyi'
p1145
I39
sS'gcu'
p1146
I8
sS'nyo'
p1147
I1
sS'sij'
p1148
I1
sS'nya'
p1149
I13
sS'nye'
p1150
I3
sS'aog'
p1151
I11
sS'aof'
p1152
I13
sS'mas'
p1153
I5
sS'aod'
p1154
I33
sS'aoc'
p1155
I22
sS'aob'
p1156
I13
sS'aoa'
p1157
I3
sS'aon'
p1158
I29
sS'aom'
p1159
I17
sS'aol'
p1160
I46
sS'aok'
p1161
I4
sS'aoj'
p1162
I45
sS'aoh'
p1163
I25
sS'aow'
p1164
I3
sS'aot'
p1165
I15
sS'aos'
p1166
I74
sS'aor'
p1167
I4
sS'aoq'
p1168
I18
sS'maf'
p1169
I2
sS'mai'
p1170
I28
sS'maj'
p1171
I3
sS'mam'
p1172
I8
sS'mal'
p1173
I11
sS'mao'
p1174
I12
sS'aox'
p1175
I63
sS'ghu'
p1176
I45
sS'obu'
p1177
I4
sS'ryi'
p1178
I1
sS'ghe'
p1179
I2
sS'gha'
p1180
I2
sS'fac'
p1181
I6
sS'gch'
p1182
I78
sS'gho'
p1183
I2
sS'oyu'
p1184
I9
sS'eum'
p1185
I1
sS'gta'
p1186
I1
sS'jid'
p1187
I17
sS'jie'
p1188
I61
sS'jib'
p1189
I5
sS'jic'
p1190
I5
sS'jia'
p1191
I440
sS'jin'
p1192
I191
sS'gti'
p1193
I2
sS'jil'
p1194
I5
sS'jij'
p1195
I7
sS'jih'
p1196
I19
sS'gto'
p1197
I4
sS'ens'
p1198
I16
sS'jir'
p1199
I1
sS'jis'
p1200
I3
sS'jiq'
p1201
I1
sS'jix'
p1202
I4
sS'sif'
p1203
I1
sS'dad'
p1204
I21
sS'non'
p1205
I22
sS'dag'
p1206
I4
sS'dab'
p1207
I6
sS'dac'
p1208
I1
sS'dal'
p1209
I6
sS'dam'
p1210
I11
sS'dan'
p1211
I137
sS'dao'
p1212
I237
sS'dah'
p1213
I7
sS'dai'
p1214
I60
sS'daj'
p1215
I11
sS'nse'
p1216
I6
sS'dat'
p1217
I3
sS'daw'
p1218
I2
sS'dap'
p1219
I10
sS'dar'
p1220
I2
sS'das'
p1221
I15
sS'ita'
p1222
I9
sS'nou'
p1223
I1
sS'dax'
p1224
I25
sS'oye'
p1225
I56
sS'daz'
p1226
I16
sS'sih'
p1227
I2
sS'nfa'
p1228
I17
sS'guk'
p1229
I2
sS'nfu'
p1230
I2
sS'sil'
p1231
I1
sS'fen'
p1232
I39
sS'ouk'
p1233
I2
sS'ouj'
p1234
I10
sS'ouh'
p1235
I4
sS'oum'
p1236
I19
sS'oul'
p1237
I34
sS'ouc'
p1238
I13
sS'emi'
p1239
I3
sS'bua'
p1240
I1
sS'uwe'
p1241
I1
sS'ouf'
p1242
I1
sS'oue'
p1243
I4
sS'oud'
p1244
I22
sS'ouz'
p1245
I5
sS'ouy'
p1246
I12
sS'oux'
p1247
I6
sS'ous'
p1248
I22
sS'npi'
p1249
I1
sS'ouq'
p1250
I14
sS'oup'
p1251
I6
sS'ouw'
p1252
I4
sS'out'
p1253
I9
sS'eji'
p1254
I37
sS'\x80iy'
p1255
I2
sS'ren'
p1256
I186
sS'qus'
p1257
I2
sS'ide'
p1258
I5
sS'eco'
p1259
I1
sS'npa'
p1260
I2
sS'eci'
p1261
I5
sS'ech'
p1262
I20
sS'qua'
p1263
I31
sS'oro'
p1264
I2
sS'ecu'
p1265
I2
sS'ehu'
p1266
I13
sS'que'
p1267
I18
sS'qud'
p1268
I1
sS'ore'
p1269
I3
sS'qul'
p1270
I6
sS'qun'
p1271
I3
sS'yux'
p1272
I1
sS'yus'
p1273
I3
sS'yui'
p1274
I1
sS'yuk'
p1275
I1
sS'yuj'
p1276
I1
sS'yun'
p1277
I32
sS'yua'
p1278
I111
sS'yue'
p1279
I40
sS'yud'
p1280
I3
sS'zan'
p1281
I9
sS'zao'
p1282
I12
sS'oni'
p1283
I21
sS'zai'
p1284
I223
sS'lon'
p1285
I16
sS'ona'
p1286
I9
sS'ong'
p1287
I449
sS'ihu'
p1288
I66
sS'zaz'
p1289
I1
sS'iho'
p1290
I132
sS'fum'
p1291
I9
sS'hu:'
p1292
I1
sS'ihe'
p1293
I4
sS'iam'
p1294
I6
sS'yid'
p1295
I25
sS'yig'
p1296
I3
sS'yif'
p1297
I19
sS'iah'
p1298
I2
sS'yib'
p1299
I27
sS'yim'
p1300
I7
sS'yil'
p1301
I13
sS'uku'
p1302
I2
sS'yin'
p1303
I109
sS'yih'
p1304
I36
sS'yik'
p1305
I1
sS'iab'
p1306
I2
sS'uko'
p1307
I5
sS'yit'
p1308
I12
sS'yiw'
p1309
I5
sS'heg'
p1310
I11
sS'yiq'
p1311
I27
sS'yip'
p1312
I2
sS'yis'
p1313
I17
sS'iaz'
p1314
I12
sS'iat'
p1315
I12
sS'iaw'
p1316
I16
sS'man'
p1317
I54
sS'yiy'
p1318
I30
sS'yix'
p1319
I17
sS'uka'
p1320
I1
sS'yiz'
p1321
I13
sS'huf'
p1322
I3
sS'hug'
p1323
I2
sS'rsh'
p1324
I6
sS'hua'
p1325
I246
sS'hub'
p1326
I7
sS'huc'
p1327
I4
sS'hul'
p1328
I45
sS'hum'
p1329
I3
sS'hun'
p1330
I29
sS'huo'
p1331
I155
sS'huh'
p1332
I6
sS'hui'
p1333
I151
sS'huj'
p1334
I16
sS'huk'
p1335
I5
sS'uda'
p1336
I29
sS'hup'
p1337
I4
sS'huq'
p1338
I13
sS'hur'
p1339
I13
sS'hus'
p1340
I11
sS'oge'
p1341
I2
sS'rsu'
p1342
I24
sS'udi'
p1343
I8
sS'hux'
p1344
I15
sS'huy'
p1345
I29
sS'huz'
p1346
I5
sS'seg'
p1347
I2
sS'iyu'
p1348
I26
sS'ben'
p1349
I19
sS'rzi'
p1350
I6
sS'rzh'
p1351
I1
sS'bei'
p1352
I60
sS'are'
p1353
I3
sS'and'
p1354
I75
sS'ane'
p1355
I3
sS'sai'
p1356
I3
sS'ang'
p1357
I1278
sS'sao'
p1358
I1
sS'san'
p1359
I39
sS'anb'
p1360
I19
sS'anc'
p1361
I28
sS'anl'
p1362
I40
sS'anm'
p1363
I28
sS'ann'
p1364
I2
sS'anh'
p1365
I23
sS'anj'
p1366
I79
sS'ank'
p1367
I14
sS'ant'
p1368
I18
sS'anw'
p1369
I20
sS'anp'
p1370
I3
sS'anq'
p1371
I39
sS'anr'
p1372
I21
sS'ans'
p1373
I123
sS'nqi'
p1374
I37
sS'anx'
p1375
I17
sS'any'
p1376
I40
sS'anz'
p1377
I105
sS'xio'
p1378
I4
sS'mim'
p1379
I3
sS'min'
p1380
I41
sS'mia'
p1381
I98
sS'ean'
p1382
I1
sS'gku'
p1383
I5
sS'zon'
p1384
I14
sS'bur'
p1385
I8
sS'miz'
p1386
I1
sS'zou'
p1387
I51
sS'gko'
p1388
I2
sS'bus'
p1389
I12
sS'gka'
p1390
I2
sS'seh'
p1391
I2
sS'gke'
p1392
I12
sS'iwe'
p1393
I5
sS'uyu'
p1394
I35
sS'iwa'
p1395
I14
sS'iwo'
p1396
I1
sS'awu'
p1397
I16
sS'uya'
p1398
I11
sS'iwu'
p1399
I7
sS'uyi'
p1400
I10
sS'awa'
p1401
I6
sS'ure'
p1402
I7
sS'inl'
p1403
I18
sS'e\xe2\x80'
p1404
I1
sS'iar'
p1405
I1
sS'axu'
p1406
I23
sS'uro'
p1407
I4
sS'eha'
p1408
I18
sS'axi'
p1409
I17
sS'nlu'
p1410
I6
sS'nla'
p1411
I18
sS'nle'
p1412
I27
sS'nli'
p1413
I23
sS'inn'
p1414
I2
sS'ngd'
p1415
I85
sS'nge'
p1416
I9
sS'ngf'
p1417
I31
sS'ngg'
p1418
I45
sS'nga'
p1419
I4
sS'ngb'
p1420
I67
sS'ngc'
p1421
I88
sS'ngl'
p1422
I64
sS'ngm'
p1423
I38
sS'ngn'
p1424
I12
sS'ngo'
p1425
I3
sS'ngh'
p1426
I51
sS'ngj'
p1427
I55
sS'ngk'
p1428
I21
sS'ngt'
p1429
I9
sS'ngu'
p1430
I16
sS'ngw'
p1431
I13
sS'ngp'
p1432
I24
sS'ngq'
p1433
I61
sS'ngr'
p1434
I29
sS'ngs'
p1435
I42
sS'ngx'
p1436
I79
sS'ngy'
p1437
I103
sS'ngz'
p1438
I128
sS'ges'
p1439
I13
sS'ger'
p1440
I38
sS'geq'
p1441
I3
sS'gep'
p1442
I3
sS'gew'
p1443
I1
sS'geu'
p1444
I1
sS'get'
p1445
I1
sS'gez'
p1446
I16
sS'gey'
p1447
I22
sS'gex'
p1448
I13
sS'bud'
p1449
I17
sS'gec'
p1450
I13
sS'geb'
p1451
I19
sS'geg'
p1452
I5
sS'gef'
p1453
I2
sS'ged'
p1454
I29
sS'gek'
p1455
I2
sS'gej'
p1456
I11
sS'gei'
p1457
I17
sS'geh'
p1458
I22
sS'gen'
p1459
I75
sS'gem'
p1460
I6
sS'gel'
p1461
I5
sS'gbe'
p1462
I1
sS'shu'
p1463
I228
sS'gba'
p1464
I34
sS'gbo'
p1465
I1
sS'gbi'
p1466
I22
sS'sha'
p1467
I261
sS'gbu'
p1468
I9
sS'she'
p1469
I229
sS'shi'
p1470
I617
sS'ng:'
p1471
I1
sS'sho'
p1472
I53
sS'ebe'
p1473
I4
sS'uti'
p1474
I2
sS'eba'
p1475
I6
sS'ken'
p1476
I3
sS'ebo'
p1477
I6
sS'ebi'
p1478
I23
sS'ebu'
p1479
I9
sS'zha'
p1480
I174
sS'lus'
p1481
I9
sS'iku'
p1482
I7
sS'lua'
p1483
I5
sS'lud'
p1484
I3
sS'zhe'
p1485
I330
sS'lun'
p1486
I4
sS'luo'
p1487
I6
sS'tux'
p1488
I1
sS'tuy'
p1489
I1
sS'kel'
p1490
I3
sS'jou'
p1491
I1
sS'eul'
p1492
I1
sS'ked'
p1493
I2
sS'kec'
p1494
I4
sS'keb'
p1495
I2
sS'kea'
p1496
I7
sS'tuh'
p1497
I1
sS'tui'
p1498
I12
sS'tuj'
p1499
I2
sS'kez'
p1500
I4
sS'tun'
p1501
I1
sS'tuo'
p1502
I28
sS'tua'
p1503
I1
sS'tub'
p1504
I2
sS'tud'
p1505
I1
sS'tuf'
p1506
I7
sS'gwa'
p1507
I9
sS'etu'
p1508
I2
sS'gwu'
p1509
I4
sS'eta'
p1510
I9
sS'jio'
p1511
I1
sS'eto'
p1512
I1
sS'ucu'
p1513
I5
sS'ike'
p1514
I7
sS'pou'
p1515
I1
sS'pij'
p1516
I2
sS'pop'
p1517
I2
sS'oho'
p1518
I4
sS'poj'
p1519
I2
sS'keu'
p1520
I1
sS'uci'
p1521
I1
sS'uid'
p1522
I10
sS'\x80nj'
p1523
I1
sS'inz'
p1524
I9
sS'yaz'
p1525
I5
sS'kes'
p1526
I13
sS'yaq'
p1527
I1
sS'yap'
p1528
I14
sS'yas'
p1529
I1
sS'uza'
p1530
I2
sS'yam'
p1531
I4
sS'yao'
p1532
I85
sS'\x80nz'
p1533
I1
sS'\xc3\x80n'
p1534
I1
sS'uih'
p1535
I14
sS'awo'
p1536
I1
sS'yac'
p1537
I2
sS'gtu'
p1538
I2
sS'oti'
p1539
I9
sS'inw'
p1540
I22
sS'oto'
p1541
I7
sS'ota'
p1542
I3
sS'uil'
p1543
I9
sS'ile'
p1544
I53
sS'qic'
p1545
I12
sS'cou'
p1546
I1
sS'eiq'
p1547
I4
sS'eip'
p1548
I2
sS'eis'
p1549
I15
sS'eir'
p1550
I5
sS'eit'
p1551
I3
sS'eiw'
p1552
I2
sS'eiy'
p1553
I53
sS'eix'
p1554
I3
sS'rbu'
p1555
I1
sS'eiz'
p1556
I10
sS'piz'
p1557
I1
sS'inq'
p1558
I24
sS'hde'
p1559
I1
sS'eib'
p1560
I3
sS'eid'
p1561
I3
sS'eig'
p1562
I5
sS'eif'
p1563
I6
sS'eih'
p1564
I16
sS'eik'
p1565
I5
sS'eij'
p1566
I3
sS'eim'
p1567
I3
sS'eil'
p1568
I17
sS'ini'
p1569
I2
sS'uxu'
p1570
I8
sS'inj'
p1571
I6
sS'iuw'
p1572
I2
sS'ind'
p1573
I2
sS'ohu'
p1574
I24
sS'bis'
p1575
I1
sS'uxi'
p1576
I35
sS'uqi'
p1577
I335
sS'pas'
p1578
I6
sS'ilu'
p1579
I10
sS'pai'
p1580
I20
sS'paj'
p1581
I2
sS'pak'
p1582
I1
sS'uqu'
p1583
I12
sS'pan'
p1584
I35
sS'pao'
p1585
I40
sS'fur'
p1586
I1
sS'pho'
p1587
I2
sS'pha'
p1588
I1
sS'wo*'
p1589
I2
sS'phd'
p1590
I1
sS'ion'
p1591
I6
sS'ira'
p1592
I25
sS'dak'
p1593
I11
sS'nag'
p1594
I5
sS'ofa'
p1595
I7
sS'nad'
p1596
I1
sS'uji'
p1597
I76
sS'ofu'
p1598
I10
sS'gdu'
p1599
I21
sS'gda'
p1600
I48
sS'gde'
p1601
I8
sS'gdi'
p1602
I6
sS'gdo'
p1603
I2
sS'gmi'
p1604
I16
sS'wei'
p1605
I117
sS'wen'
p1606
I37
sS'gme'
p1607
I8
sS'day'
p1608
I14
sS'gre'
p1609
I14
sS'ada'
p1610
I12
sS'ado'
p1611
I2
sS'adi'
p1612
I19
sS'ami'
p1613
I6
sS'moz'
p1614
I3
sS'mos'
p1615
I3
sS'ame'
p1616
I76
sS'mou'
p1617
I1
sS'gxi'
p1618
I68
sS'nve'
p1619
I1
sS'moh'
p1620
I2
sS'mol'
p1621
I2
sS'mof'
p1622
I1
sS'gju'
p1623
I11
sS'gji'
p1624
I44
sS'ezu'
p1625
I1
sS'nji'
p1626
I73
sS'ezh'
p1627
I23
sS'ezi'
p1628
I13
sS'nju'
p1629
I19
sS'eza'
p1630
I2
sS'ese'
p1631
I1
sS'uch'
p1632
I24
sS'esi'
p1633
I4
sS'esh'
p1634
I65
sS'nmu'
p1635
I1
sS'nme'
p1636
I74
sS'nma'
p1637
I14
sS'nmi'
p1638
I13
sS'ndi'
p1639
I7
sS'aca'
p1640
I3
sS'ndo'
p1641
I31
sS'nda'
p1642
I41
sS'ach'
p1643
I12
sS'nde'
p1644
I6
sS'ndu'
p1645
I4
sS'owo'
p1646
I2
sS'zir'
p1647
I1
sS'owe'
p1648
I2
sS'owa'
p1649
I3
sS'het'
p1650
I1
sS'hew'
p1651
I1
sS'heq'
p1652
I4
sS'her'
p1653
I4
sS'hes'
p1654
I15
sS'hex'
p1655
I5
sS'hey'
p1656
I13
sS'hez'
p1657
I11
sS'hed'
p1658
I3
sS'hef'
p1659
I8
sS'ehe'
p1660
I5
sS'heb'
p1661
I6
sS'lou'
p1662
I17
sS'hel'
p1663
I7
sS'hem'
p1664
I4
sS'hen'
p1665
I566
sS'heh'
p1666
I6
sS'hei'
p1667
I29
sS'hej'
p1668
I15
sS'eai'
p1669
I7
sS'juc'
p1670
I1
sS'bux'
p1671
I11
sS'jua'
p1672
I3
sS'hiq'
p1673
I37
sS'jue'
p1674
I24
sS'juj'
p1675
I1
sS'oug'
p1676
I4
sS'buq'
p1677
I17
sS'jun'
p1678
I17
sS'but'
p1679
I5
sS'jum'
p1680
I2
sS'jur'
p1681
I2
sS'jus'
p1682
I2
sS'buh'
p1683
I2
sS'juq'
p1684
I2
sS'bun'
p1685
I1
sS'bum'
p1686
I2
sS'juz'
p1687
I8
sS'buc'
p1688
I9
sS'gfu'
p1689
I13
sS'buf'
p1690
I5
sS'bug'
p1691
I16
sS'rji'
p1692
I1
sS'lve'
p1693
I1
sS'gro'
p1694
I1
sS'guz'
p1695
I3
sS'ziy'
p1696
I1
sS'uic'
p1697
I6
sS'uib'
p1698
I9
sS'inx'
p1699
I4
sS'iny'
p1700
I21
sS'uig'
p1701
I4
sS'uif'
p1702
I7
sS'int'
p1703
I1
sS'ohe'
p1704
I3
sS'uik'
p1705
I3
sS'uij'
p1706
I22
sS'uim'
p1707
I6
sS'oha'
p1708
I8
sS'inr'
p1709
I1
sS'ins'
p1710
I15
sS'uiq'
p1711
I3
sS'inm'
p1712
I1
sS'uis'
p1713
I3
sS'uir'
p1714
I26
sS'inh'
p1715
I2
sS'uit'
p1716
I1
sS'uiw'
p1717
I2
sS'ink'
p1718
I2
sS'uiy'
p1719
I6
sS'uix'
p1720
I1
sS'uiz'
p1721
I20
sS'ina'
p1722
I26
sS'inc'
p1723
I3
sS'yon'
p1724
I40
sS'igu'
p1725
I28
sS'oao'
p1726
I3
sS'ige'
p1727
I1
sS'iga'
p1728
I3
sS'igo'
p1729
I3
sS'you'
p1730
I352
sS'ubu'
p1731
I4
sS'uba'
p1732
I8
sS'ubo'
p1733
I1
sS'ubi'
p1734
I12
sS'rxi'
p1735
I1
sS'\xe2\x80\x94'
p1736
I2
sS'oub'
p1737
I7
sS'\xe2\x80\x9d'
p1738
I1
sS'eon'
p1739
I1
sS'eol'
p1740
I2
sS'eos'
p1741
I1
stRp1742
ag2
((dp1743
S'uimi'
p1744
I6
sS'pida'
p1745
I1
sS'nmey'
p1746
I5
sS'ayue'
p1747
I3
sS'ayua'
p1748
I2
sS'uoxi'
p1749
I2
sS'hato'
p1750
I1
sS'hata'
p1751
I10
sS'zuoz'
p1752
I6
sS'nmen'
p1753
I3
sS'uito'
p1754
I1
sS'liji'
p1755
I1
sS'xuya'
p1756
I2
sS'hedi'
p1757
I2
sS'dazh'
p1758
I16
sS'eire'
p1759
I3
sS'dele'
p1760
I1
sS'uofa'
p1761
I2
sS'deli'
p1762
I3
sS'ngyu'
p1763
I15
sS'ngyo'
p1764
I25
sS'uofu'
p1765
I1
sS'zuop'
p1766
I1
sS'gyua'
p1767
I1
sS'ngyi'
p1768
I42
sS'gyun'
p1769
I4
sS'neus'
p1770
I1
sS'nyua'
p1771
I14
sS'uedu'
p1772
I5
sS'uedi'
p1773
I4
sS'iucu'
p1774
I2
sS'uede'
p1775
I14
sS'naix'
p1776
I1
sS'enti'
p1777
I7
sS'ngei'
p1778
I1
sS'ngen'
p1779
I1
sS'chef'
p1780
I4
sS'dish'
p1781
I5
sS'nain'
p1782
I9
sS'liao'
p1783
I14
sS'chen'
p1784
I77
sS'chel'
p1785
I2
sS'yach'
p1786
I2
sS'hida'
p1787
I53
sS'wuji'
p1788
I4
sS'hidi'
p1789
I2
sS'uzai'
p1790
I2
sS'iuji'
p1791
I2
sS'piji'
p1792
I2
sS'\xc7\x91ue'
p1793
I1
sS'tanz'
p1794
I3
sS'ongn'
p1795
I2
sS'ongl'
p1796
I3
sS'ongm'
p1797
I10
sS'ongj'
p1798
I23
sS'ongk'
p1799
I4
sS'ongh'
p1800
I11
sS'oshu'
p1801
I6
sS'daha'
p1802
I3
sS'ongg'
p1803
I14
sS'ongd'
p1804
I6
sS'ongb'
p1805
I7
sS'ongc'
p1806
I14
sS'osha'
p1807
I12
sS'ongz'
p1808
I27
sS'gaos'
p1809
I12
sS'ongx'
p1810
I30
sS'ongy'
p1811
I23
sS'sugu'
p1812
I3
sS'ongw'
p1813
I4
sS'aigu'
p1814
I9
sS'oshi'
p1815
I41
sS'ongr'
p1816
I3
sS'ongs'
p1817
I11
sS'ongq'
p1818
I5
sS'ngwu'
p1819
I4
sS'taiy'
p1820
I2
sS'dizh'
p1821
I5
sS'uiji'
p1822
I22
sS'shub'
p1823
I1
sS'ibao'
p1824
I3
sS'engh'
p1825
I11
sS'unia'
p1826
I6
sS'engj'
p1827
I8
sS'ndua'
p1828
I2
sS'shuo'
p1829
I92
sS'jile'
p1830
I1
sS'yaqi'
p1831
I1
sS'apai'
p1832
I10
sS'uyid'
p1833
I2
sS'aosi'
p1834
I1
sS'aosh'
p1835
I61
sS'aosu'
p1836
I12
sS'seji'
p1837
I1
sS'xiah'
p1838
I2
sS'fuqi'
p1839
I66
sS'engc'
p1840
I1
sS'tuhu'
p1841
I1
sS'engd'
p1842
I33
sS'enju'
p1843
I3
sS'haha'
p1844
I2
sS'enge'
p1845
I5
sS'xial'
p1846
I14
sS'enji'
p1847
I3
sS'ihei'
p1848
I4
sS'hura'
p1849
I11
sS'engg'
p1850
I12
sS'hure'
p1851
I2
sS'gpan'
p1852
I10
sS'gpao'
p1853
I6
sS'onia'
p1854
I20
sS'uban'
p1855
I8
sS'nlia'
p1856
I4
sS'hizi'
p1857
I3
sS'hizh'
p1858
I16
sS'nlin'
p1859
I2
sS'oniz'
p1860
I1
sS'wanc'
p1861
I4
sS'ukel'
p1862
I1
sS'wang'
p1863
I52
sS'wanj'
p1864
I6
sS'gedu'
p1865
I1
sS'wanl'
p1866
I1
sS'wanr'
p1867
I5
sS'wans'
p1868
I11
sS'wanp'
p1869
I1
sS'wanq'
p1870
I7
sS'umin'
p1871
I5
sS'umia'
p1872
I15
sS'geda'
p1873
I8
sS'iawu'
p1874
I16
sS'wany'
p1875
I4
sS'ukes'
p1876
I1
sS'gede'
p1877
I1
sS'buna'
p1878
I1
sS'ilia'
p1879
I8
sS'udao'
p1880
I21
sS'ilie'
p1881
I2
sS'ning'
p1882
I2
sS'ilig'
p1883
I3
sS'ilih'
p1884
I3
sS'nnib'
p1885
I1
sS'nnia'
p1886
I2
sS'ilil'
p1887
I2
sS'ilin'
p1888
I2
sS'iliu'
p1889
I5
sS'egon'
p1890
I3
sS'adia'
p1891
I1
sS'seda'
p1892
I1
sS'il\xc7\x98'
p1893
I2
sS'seon'
p1894
I1
sS'eiru'
p1895
I2
sS'aomu'
p1896
I10
sS'amia'
p1897
I6
sS'gton'
p1898
I1
sS'gtou'
p1899
I3
sS'aomi'
p1900
I6
sS'aome'
p1901
I1
sS'eise'
p1902
I4
sS'over'
p1903
I13
sS'ngxu'
p1904
I11
sS'eish'
p1905
I9
sS'ngxi'
p1906
I68
sS'eisu'
p1907
I2
sS'uogu'
p1908
I5
sS'yiny'
p1909
I8
sS'juch'
p1910
I1
sS'yimi'
p1911
I7
sS'inan'
p1912
I17
sS'fada'
p1913
I3
sS'inai'
p1914
I9
sS'uwei'
p1915
I1
sS'ngya'
p1916
I21
sS'fado'
p1917
I2
sS'iqia'
p1918
I8
sS'eyan'
p1919
I15
sS'iqie'
p1920
I2
sS'upin'
p1921
I1
sS'iset'
p1922
I1
sS'upia'
p1923
I4
sS'bany'
p1924
I1
sS'bixu'
p1925
I1
sS'iqin'
p1926
I62
sS'ahui'
p1927
I2
sS'bang'
p1928
I23
sS'iqir'
p1929
I1
sS'iqiu'
p1930
I3
sS'banc'
p1931
I1
sS'ised'
p1932
I3
sS'ahua'
p1933
I2
sS'iseh'
p1934
I2
sS'yinl'
p1935
I1
sS'weng'
p1936
I5
sS'hiwu'
p1937
I2
sS'alen'
p1938
I1
sS'ezuo'
p1939
I1
sS'went'
p1940
I5
sS'wens'
p1941
I1
sS'zuil'
p1942
I1
sS'zuih'
p1943
I14
sS'aido'
p1944
I1
sS'zuid'
p1945
I1
sS'emuq'
p1946
I1
sS'aida'
p1947
I6
sS'zuib'
p1948
I1
sS'obuc'
p1949
I2
sS'ligu'
p1950
I3
sS'dawa'
p1951
I2
sS'zuiz'
p1952
I1
sS'yuek'
p1953
I1
sS'obur'
p1954
I1
sS'heqi'
p1955
I4
sS'laiw'
p1956
I1
sS'taon'
p1957
I9
sS'laip'
p1958
I2
sS'taod'
p1959
I1
sS'buxu'
p1960
I3
sS'laiy'
p1961
I8
sS'laid'
p1962
I5
sS'ihou'
p1963
I132
sS'taoy'
p1964
I1
sS'yinc'
p1965
I2
sS'taop'
p1966
I2
sS'laih'
p1967
I2
sS'hang'
p1968
I405
sS'uoyu'
p1969
I1
sS'tian'
p1970
I97
sS'tiao'
p1971
I40
sS'uoyi'
p1972
I15
sS'uoye'
p1973
I1
sS'angd'
p1974
I29
sS'ange'
p1975
I1
sS'louz'
p1976
I1
sS'angg'
p1977
I6
sS'anga'
p1978
I1
sS'angb'
p1979
I45
sS'angc'
p1980
I36
sS'angl'
p1981
I15
sS'angm'
p1982
I21
sS'angn'
p1983
I6
sS'dayu'
p1984
I5
sS'angh'
p1985
I26
sS'angj'
p1986
I12
sS'angk'
p1987
I13
sS'hech'
p1988
I1
sS'heci'
p1989
I2
sS'angw'
p1990
I2
sS'angp'
p1991
I7
sS'dugu'
p1992
I8
sS'ehan'
p1993
I3
sS'angs'
p1994
I17
sS'biji'
p1995
I23
sS'louc'
p1996
I9
sS'angx'
p1997
I32
sS'angy'
p1998
I28
sS'angz'
p1999
I63
sS'daya'
p2000
I5
sS'rane'
p2001
I2
sS'rang'
p2002
I52
sS'haok'
p2003
I2
sS'haol'
p2004
I5
sS'puch'
p2005
I1
sS'haob'
p2006
I2
sS'tuos'
p2007
I1
sS'haod'
p2008
I8
sS'ranh'
p2009
I11
sS'haog'
p2010
I3
sS'haox'
p2011
I28
sS'hans'
p2012
I1
sS'haoz'
p2013
I4
sS'tuol'
p2014
I1
sS'rans'
p2015
I2
sS'haop'
p2016
I1
sS'gugu'
p2017
I2
sS'enia'
p2018
I1
sS'haot'
p2019
I3
sS'tuoe'
p2020
I23
sS'haow'
p2021
I3
sS'rong'
p2022
I12
sS'hiyu'
p2023
I1
sS'ifan'
p2024
I67
sS'hiyi'
p2025
I6
sS'hiyo'
p2026
I13
sS'hiya'
p2027
I2
sS'hiye'
p2028
I3
sS'ngdo'
p2029
I2
sS'ngdi'
p2030
I6
sS'eshu'
p2031
I2
sS'haga'
p2032
I1
sS'ngde'
p2033
I8
sS'digu'
p2034
I1
sS'nahu'
p2035
I2
sS'ngda'
p2036
I48
sS'zira'
p2037
I1
sS'esha'
p2038
I8
sS'eshe'
p2039
I18
sS'xiuq'
p2040
I1
sS'ngdu'
p2041
I21
sS'eshi'
p2042
I32
sS'ntia'
p2043
I7
sS'esho'
p2044
I5
sS'nger'
p2045
I2
sS'hika'
p2046
I3
sS'faxi'
p2047
I4
sS'uyua'
p2048
I4
sS'iyue'
p2049
I13
sS'muba'
p2050
I8
sS'hayi'
p2051
I2
sS'iyua'
p2052
I13
sS'uyun'
p2053
I24
sS'mind'
p2054
I2
sS'nyan'
p2055
I12
sS'g\xc9\xa1u'
p2056
I1
sS'ming'
p2057
I33
sS'eile'
p2058
I14
sS'naif'
p2059
I1
sS'eila'
p2060
I3
sS'huox'
p2061
I1
sS'huoz'
p2062
I21
sS'huot'
p2063
I2
sS'huow'
p2064
I1
sS'huoq'
p2065
I3
sS'huol'
p2066
I1
sS'aoni'
p2067
I20
sS'huoh'
p2068
I8
sS'jihu'
p2069
I19
sS'huod'
p2070
I3
sS'huof'
p2071
I3
sS'aona'
p2072
I9
sS'huob'
p2073
I2
sS'huoc'
p2074
I1
sS'glon'
p2075
I10
sS'keai'
p2076
I7
sS'qizu'
p2077
I4
sS'qizh'
p2078
I3
sS'qizi'
p2079
I1
sS'yipi'
p2080
I2
sS'glou'
p2081
I1
sS'yant'
p2082
I2
sS'yanw'
p2083
I3
sS'daoz'
p2084
I1
sS'yanz'
p2085
I2
sS'huqi'
p2086
I1
sS'yang'
p2087
I72
sS'tech'
p2088
I3
sS'seka'
p2089
I1
sS'\x80nzh'
p2090
I1
sS'yanj'
p2091
I29
sS'yank'
p2092
I2
sS'bais'
p2093
I2
sS'phde'
p2094
I1
sS'anho'
p2095
I11
sS'baix'
p2096
I2
sS'baiy'
p2097
I3
sS'baiz'
p2098
I2
sS'izai'
p2099
I1
sS'iezh'
p2100
I3
sS'izao'
p2101
I2
sS'nand'
p2102
I3
sS'baib'
p2103
I3
sS'baid'
p2104
I1
sS'ppun'
p2105
I1
sS'baif'
p2106
I2
sS'baig'
p2107
I1
sS'baih'
p2108
I1
sS'daos'
p2109
I2
sS'anhu'
p2110
I11
sS'baim'
p2111
I5
sS'ganq'
p2112
I2
sS'eibu'
p2113
I1
sS'odan'
p2114
I1
sS'odao'
p2115
I13
sS'huaz'
p2116
I1
sS'ueta'
p2117
I8
sS'gson'
p2118
I4
sS'bush'
p2119
I12
sS'menh'
p2120
I1
sS'eiba'
p2121
I2
sS'menk'
p2122
I1
sS'menf'
p2123
I2
sS'meng'
p2124
I2
sS'menc'
p2125
I1
sS'iati'
p2126
I12
sS'uati'
p2127
I4
sS'daod'
p2128
I7
sS'nyec'
p2129
I2
sS'uatu'
p2130
I1
sS'zuan'
p2131
I4
sS'buan'
p2132
I1
sS'nanr'
p2133
I3
sS'ipen'
p2134
I1
sS'otou'
p2135
I6
sS'nran'
p2136
I2
sS'anza'
p2137
I9
sS'anze'
p2138
I1
sS'anzi'
p2139
I42
sS'anzh'
p2140
I53
sS'aigo'
p2141
I2
sS'ipao'
p2142
I3
sS'izim'
p2143
I3
sS'egun'
p2144
I1
sS'uozh'
p2145
I32
sS'hash'
p2146
I2
sS'iuzh'
p2147
I5
sS'inni'
p2148
I2
sS'pizh'
p2149
I1
sS'ishu'
p2150
I9
sS'uizh'
p2151
I13
sS'saib'
p2152
I1
sS'anfa'
p2153
I9
sS'liha'
p2154
I1
sS'daxu'
p2155
I23
sS'uiza'
p2156
I1
sS'bier'
p2157
I8
sS'daxi'
p2158
I2
sS'ishe'
p2159
I18
sS'bien'
p2160
I1
sS'isha'
p2161
I9
sS'isho'
p2162
I3
sS'eren'
p2163
I44
sS'neng'
p2164
I20
sS'hebe'
p2165
I3
sS'ueba'
p2166
I2
sS'uoho'
p2167
I4
sS'nsej'
p2168
I1
sS'nsek'
p2169
I1
sS'gmia'
p2170
I11
sS'gmin'
p2171
I4
sS'gque'
p2172
I1
sS'axue'
p2173
I23
sS'gqua'
p2174
I2
sS'lazh'
p2175
I10
sS'uebu'
p2176
I2
sS'nsey'
p2177
I3
sS'uohu'
p2178
I4
sS'debu'
p2179
I1
sS'eguy'
p2180
I1
sS'gcen'
p2181
I1
sS'zais'
p2182
I1
sS'ciqu'
p2183
I2
sS'ncai'
p2184
I1
sS'yiji'
p2185
I31
sS'fagu'
p2186
I1
sS'uazh'
p2187
I6
sS'gewa'
p2188
I1
sS'ouke'
p2189
I1
sS'obei'
p2190
I1
sS'iabu'
p2191
I1
sS'iuti'
p2192
I2
sS'zufu'
p2193
I5
sS'ngch'
p2194
I78
sS'rena'
p2195
I1
sS'guiz'
p2196
I5
sS'tong'
p2197
I35
sS'enzh'
p2198
I10
sS'oshe'
p2199
I6
sS'ngce'
p2200
I1
sS'duif'
p2201
I5
sS'guid'
p2202
I1
sS'ngcu'
p2203
I8
sS'difa'
p2204
I23
sS'iuha'
p2205
I1
sS'reng'
p2206
I7
sS'hiji'
p2207
I25
sS'ayan'
p2208
I10
sS'oluo'
p2209
I3
sS'ting'
p2210
I34
sS'iuhu'
p2211
I1
sS'puto'
p2212
I1
sS'idon'
p2213
I3
sS'ersh'
p2214
I6
sS'suan'
p2215
I14
sS'cunl'
p2216
I2
sS'chua'
p2217
I57
sS'chun'
p2218
I4
sS'chuo'
p2219
I2
sS'chul'
p2220
I39
sS'yech'
p2221
I2
sS'chuj'
p2222
I10
sS'naya'
p2223
I5
sS'chui'
p2224
I5
sS'cunz'
p2225
I10
sS'chus'
p2226
I10
sS'chuq'
p2227
I11
sS'chuz'
p2228
I2
sS'ersu'
p2229
I24
sS'chux'
p2230
I4
sS'dash'
p2231
I15
sS'tanl'
p2232
I2
sS'gyao'
p2233
I8
sS'gyan'
p2234
I13
sS'tanh'
p2235
I2
sS'tang'
p2236
I21
sS'rens'
p2237
I12
sS'ngua'
p2238
I2
sS'uiho'
p2239
I14
sS'tanw'
p2240
I1
sS'ngun'
p2241
I1
sS'nguo'
p2242
I11
sS'tanq'
p2243
I2
sS'cang'
p2244
I2
sS'iegu'
p2245
I10
sS'ulon'
p2246
I4
sS'canj'
p2247
I7
sS'duiz'
p2248
I6
sS'cong'
p2249
I67
sS'udan'
p2250
I6
sS'kebu'
p2251
I2
sS'udai'
p2252
I2
sS'enhe'
p2253
I1
sS'hong'
p2254
I119
sS'yaot'
p2255
I1
sS'yaos'
p2256
I3
sS'oupi'
p2257
I6
sS'yaoq'
p2258
I1
sS'hupi'
p2259
I4
sS'yunq'
p2260
I1
sS'enho'
p2261
I1
sS'yaoy'
p2262
I3
sS'yaox'
p2263
I3
sS'enhu'
p2264
I1
sS'yunl'
p2265
I2
sS'tebi'
p2266
I11
sS'yaom'
p2267
I1
sS'ngwa'
p2268
I9
sS'hanm'
p2269
I1
sS'hanl'
p2270
I2
sS'hixi'
p2271
I13
sS'hanf'
p2272
I3
sS'hand'
p2273
I29
sS'hanz'
p2274
I23
sS'muqi'
p2275
I222
sS'nshi'
p2276
I90
sS'fush'
p2277
I3
sS'hant'
p2278
I1
sS'aisa'
p2279
I1
sS'dadi'
p2280
I18
sS'aise'
p2281
I2
sS'nkua'
p2282
I3
sS'aish'
p2283
I26
sS'dada'
p2284
I3
sS'nkuk'
p2285
I1
sS'udon'
p2286
I1
sS'zaos'
p2287
I2
sS'zaoq'
p2288
I4
sS'zaot'
p2289
I1
sS'jied'
p2290
I11
sS'jieg'
p2291
I9
sS'jiej'
p2292
I7
sS'jiek'
p2293
I3
sS'jies'
p2294
I13
sS'jush'
p2295
I2
sS'aluo'
p2296
I1
sS'ewei'
p2297
I1
sS'anyu'
p2298
I6
sS'keli'
p2299
I3
sS'anyo'
p2300
I1
sS'ruan'
p2301
I1
sS'igao'
p2302
I2
sS'igan'
p2303
I1
sS'anyi'
p2304
I21
sS'anye'
p2305
I3
sS'anya'
p2306
I9
sS'xich'
p2307
I1
sS'enao'
p2308
I1
sS'eime'
p2309
I3
sS'hunz'
p2310
I1
sS'huny'
p2311
I1
sS'hunt'
p2312
I1
sS'huns'
p2313
I2
sS'wupi'
p2314
I1
sS'oubu'
p2315
I1
sS'hunl'
p2316
I3
sS'huni'
p2317
I2
sS'hund'
p2318
I9
sS'hunb'
p2319
I1
sS'huna'
p2320
I3
sS'abuf'
p2321
I2
sS'oxie'
p2322
I1
sS'eiqi'
p2323
I4
sS'oxia'
p2324
I34
sS'oxin'
p2325
I24
sS'uech'
p2326
I1
sS'ueco'
p2327
I1
sS'yige'
p2328
I1
sS'sixi'
p2329
I1
sS'uqua'
p2330
I2
sS'oxix'
p2331
I1
sS'qil\xc7'
p2332
I2
sS'bizh'
p2333
I1
sS'jued'
p2334
I17
sS'huis'
p2335
I1
sS'umen'
p2336
I6
sS'gexi'
p2337
I13
sS'uhes'
p2338
I1
sS'uila'
p2339
I6
sS'bure'
p2340
I2
sS'anwu'
p2341
I3
sS'bura'
p2342
I2
sS'sifa'
p2343
I1
sS'boli'
p2344
I2
sS'buro'
p2345
I4
sS'unsh'
p2346
I3
sS'ilei'
p2347
I2
sS'inku'
p2348
I2
sS'efen'
p2349
I3
sS'anwe'
p2350
I15
sS'duwe'
p2351
I1
sS'efei'
p2352
I5
sS'ecun'
p2353
I2
sS'gbuq'
p2354
I2
sS'oren'
p2355
I3
sS'gefe'
p2356
I2
sS'opiq'
p2357
I1
sS'opin'
p2358
I1
sS'iaot'
p2359
I9
sS'hden'
p2360
I1
sS'ribe'
p2361
I3
sS'eich'
p2362
I33
sS'kouy'
p2363
I1
sS'hiqi'
p2364
I37
sS'naxi'
p2365
I4
sS'ghao'
p2366
I2
sS'kous'
p2367
I2
sS'uchu'
p2368
I22
sS'aiba'
p2369
I4
sS'kouk'
p2370
I1
sS'aibi'
p2371
I3
sS'abei'
p2372
I3
sS'imie'
p2373
I1
sS'ihao'
p2374
I6
sS'imia'
p2375
I36
sS'ihai'
p2376
I1
sS'ngtu'
p2377
I2
sS'kuqi'
p2378
I1
sS'otao'
p2379
I2
sS'tame'
p2380
I49
sS'acao'
p2381
I3
sS'ngto'
p2382
I4
sS'ngti'
p2383
I2
sS'oxue'
p2384
I4
sS'ngta'
p2385
I1
sS'fahu'
p2386
I1
sS'gfei'
p2387
I1
sS'inme'
p2388
I1
sS'bazi'
p2389
I1
sS'iqua'
p2390
I1
sS'emin'
p2391
I1
sS'erdu'
p2392
I4
sS'aner'
p2393
I3
sS'liwe'
p2394
I1
sS'erdi'
p2395
I22
sS'liwa'
p2396
I2
sS'nqua'
p2397
I11
sS'shij'
p2398
I22
sS'shik'
p2399
I3
sS'shih'
p2400
I83
sS'zenm'
p2401
I26
sS'jixu'
p2402
I2
sS'zema'
p2403
I1
sS'shib'
p2404
I2
sS'shic'
p2405
I3
sS'shif'
p2406
I18
sS'shig'
p2407
I1
sS'shid'
p2408
I8
sS'shie'
p2409
I6
sS'shiz'
p2410
I4
sS'moli'
p2411
I1
sS'shix'
p2412
I1
sS'shiy'
p2413
I7
sS'shis'
p2414
I3
sS'jixi'
p2415
I2
sS'shiq'
p2416
I36
sS'gkai'
p2417
I2
sS'shiw'
p2418
I3
sS'iyao'
p2419
I3
sS'iyan'
p2420
I29
sS'zanm'
p2421
I1
sS'aipo'
p2422
I8
sS'gzhi'
p2423
I1
sS'gzho'
p2424
I4
sS'uxiu'
p2425
I3
sS'oyou'
p2426
I1
sS'obai'
p2427
I2
sS'zang'
p2428
I4
sS'aipe'
p2429
I1
sS'zanc'
p2430
I1
sS'aipa'
p2431
I4
sS'uxia'
p2432
I13
sS'oyon'
p2433
I4
sS'uxie'
p2434
I6
sS'ogao'
p2435
I1
sS'zans'
p2436
I2
sS'uqil'
p2437
I3
sS'ngbi'
p2438
I22
sS'uqin'
p2439
I303
sS'ngbo'
p2440
I1
sS'ngba'
p2441
I34
sS'enya'
p2442
I4
sS'uqia'
p2443
I13
sS'ngbe'
p2444
I1
sS'nton'
p2445
I2
sS'uqiu'
p2446
I1
sS'uqis'
p2447
I1
sS'fazh'
p2448
I1
sS'mede'
p2449
I4
sS'ebol'
p2450
I1
sS'owot'
p2451
I2
sS'yazi'
p2452
I5
sS'segu'
p2453
I2
sS'yiko'
p2454
I1
sS'ouch'
p2455
I13
sS'aohu'
p2456
I18
sS'jiji'
p2457
I7
sS'gbia'
p2458
I17
sS'zong'
p2459
I14
sS'gbin'
p2460
I3
sS'qixi'
p2461
I2
sS'humi'
p2462
I2
sS'uada'
p2463
I4
sS'kech'
p2464
I4
sS'caoc'
p2465
I6
sS'iedu'
p2466
I1
sS'unna'
p2467
I2
sS'iedi'
p2468
I5
sS'caoz'
p2469
I3
sS'ieda'
p2470
I11
sS'edad'
p2471
I2
sS'ouqi'
p2472
I14
sS'edao'
p2473
I2
sS'gfen'
p2474
I8
sS'edaz'
p2475
I10
sS'unre'
p2476
I1
sS'malu'
p2477
I11
sS'gcun'
p2478
I8
sS'lixi'
p2479
I2
sS'nqil'
p2480
I1
sS'nqin'
p2481
I18
sS'gege'
p2482
I3
sS'ciyi'
p2483
I1
sS'weix'
p2484
I2
sS'nqia'
p2485
I4
sS'gego'
p2486
I1
sS'uerb'
p2487
I1
sS'houg'
p2488
I3
sS'gegu'
p2489
I1
sS'nsui'
p2490
I1
sS'uero'
p2491
I2
sS'jide'
p2492
I5
sS'houb'
p2493
I3
sS'waim'
p2494
I12
sS'waib'
p2495
I3
sS'gzou'
p2496
I1
sS'waig'
p2497
I4
sS'nala'
p2498
I1
sS'jidi'
p2499
I1
sS'nini'
p2500
I1
sS'jidu'
p2501
I11
sS'iare'
p2502
I1
sS'jure'
p2503
I1
sS'nwei'
p2504
I25
sS'nwen'
p2505
I18
sS'uaji'
p2506
I4
sS'wait'
p2507
I1
sS'uxue'
p2508
I2
sS'buch'
p2509
I6
sS'houh'
p2510
I3
sS'anxu'
p2511
I1
sS'anxi'
p2512
I16
sS'nyou'
p2513
I1
sS'uxur'
p2514
I1
sS'ieji'
p2515
I7
sS'nzai'
p2516
I9
sS'anwa'
p2517
I2
sS'iand'
p2518
I18
sS'rduo'
p2519
I4
sS'iang'
p2520
I327
sS'yifa'
p2521
I14
sS'ianb'
p2522
I7
sS'ianc'
p2523
I17
sS'ianl'
p2524
I7
sS'ianm'
p2525
I12
sS'ianj'
p2526
I11
sS'iank'
p2527
I4
sS'iant'
p2528
I8
sS'nmai'
p2529
I7
sS'inli'
p2530
I14
sS'ianq'
p2531
I18
sS'ianr'
p2532
I4
sS'ians'
p2533
I7
sS'inle'
p2534
I3
sS'iuxi'
p2535
I5
sS'ianx'
p2536
I10
sS'iany'
p2537
I19
sS'ianz'
p2538
I25
sS'xuer'
p2539
I2
sS'ohuk'
p2540
I1
sS'ando'
p2541
I31
sS'uixi'
p2542
I1
sS'andi'
p2543
I7
sS'xuet'
p2544
I9
sS'ande'
p2545
I5
sS'xuex'
p2546
I43
sS'xuey'
p2547
I2
sS'anda'
p2548
I30
sS'xuef'
p2549
I5
sS'xued'
p2550
I1
sS'andu'
p2551
I2
sS'gdon'
p2552
I2
sS'aina'
p2553
I9
sS'uoji'
p2554
I8
sS'tuda'
p2555
I1
sS'siya'
p2556
I1
sS'uika'
p2557
I3
sS'yiho'
p2558
I33
sS'gguo'
p2559
I21
sS'gedi'
p2560
I19
sS'geyu'
p2561
I15
sS'uaxi'
p2562
I7
sS'ggua'
p2563
I9
sS'geyo'
p2564
I3
sS'nyif'
p2565
I8
sS'zhan'
p2566
I130
sS'zhai'
p2567
I3
sS'cish'
p2568
I1
sS'geyi'
p2569
I4
sS'nyin'
p2570
I18
sS'yihu'
p2571
I3
sS'chiz'
p2572
I4
sS'chiy'
p2573
I1
sS'xizi'
p2574
I2
sS'chiw'
p2575
I2
sS'chij'
p2576
I1
sS'ngag'
p2577
I1
sS'ngan'
p2578
I1
sS'chic'
p2579
I1
sS'ngam'
p2580
I1
sS'enxi'
p2581
I7
sS'ngai'
p2582
I1
sS'hihu'
p2583
I2
sS'inzi'
p2584
I4
sS'inzh'
p2585
I5
sS'pinl'
p2586
I1
sS'ping'
p2587
I23
sS'juqi'
p2588
I2
sS'piny'
p2589
I13
sS'hiha'
p2590
I5
sS'idim'
p2591
I9
sS'pure'
p2592
I2
sS'idia'
p2593
I12
sS'hiho'
p2594
I81
sS'gron'
p2595
I1
sS'atan'
p2596
I10
sS'zime'
p2597
I3
sS'qins'
p2598
I1
sS'bawo'
p2599
I1
sS'duji'
p2600
I5
sS'dato'
p2601
I3
sS'aich'
p2602
I4
sS'omei'
p2603
I1
sS'omen'
p2604
I105
sS'luan'
p2605
I5
sS'ngsu'
p2606
I1
sS'ngsh'
p2607
I33
sS'nsis'
p2608
I1
sS'qinz'
p2609
I1
sS'ngso'
p2610
I4
sS'ngse'
p2611
I4
sS'ulai'
p2612
I36
sS'kong'
p2613
I20
sS'lied'
p2614
I1
sS'uoto'
p2615
I2
sS'nime'
p2616
I7
sS'maiz'
p2617
I2
sS'xihu'
p2618
I25
sS'esed'
p2619
I1
sS'diwe'
p2620
I2
sS'yame'
p2621
I4
sS'mail'
p2622
I8
sS'maij'
p2623
I3
sS'beid'
p2624
I1
sS'beif'
p2625
I4
sS'tizh'
p2626
I2
sS'beib'
p2627
I2
sS'beil'
p2628
I1
sS'beih'
p2629
I5
sS'beij'
p2630
I3
sS'uowa'
p2631
I1
sS'beiz'
p2632
I6
sS'guke'
p2633
I2
sS'nban'
p2634
I1
sS'name'
p2635
I12
sS'daba'
p2636
I4
sS'didi'
p2637
I37
sS'oliu'
p2638
I1
sS'olia'
p2639
I5
sS'dabu'
p2640
I2
sS'uanx'
p2641
I5
sS'kanj'
p2642
I11
sS'kank'
p2643
I2
sS'kang'
p2644
I5
sS'kand'
p2645
I3
sS'gtan'
p2646
I1
sS'kanz'
p2647
I6
sS'uhua'
p2648
I3
sS'njum'
p2649
I1
sS'jigu'
p2650
I1
sS'nbao'
p2651
I1
sS'uhun'
p2652
I1
sS'iash'
p2653
I1
sS'uhui'
p2654
I3
sS'njue'
p2655
I3
sS'kanq'
p2656
I1
sS'udui'
p2657
I1
sS'uzhu'
p2658
I7
sS'keng'
p2659
I1
sS'uduo'
p2660
I17
sS'udua'
p2661
I2
sS'qigu'
p2662
I5
sS'uzha'
p2663
I11
sS'uzhe'
p2664
I12
sS'ieka'
p2665
I3
sS'uanq'
p2666
I3
sS'ilun'
p2667
I1
sS'unch'
p2668
I3
sS'uanr'
p2669
I1
sS'uzho'
p2670
I2
sS'hule'
p2671
I16
sS'ouda'
p2672
I16
sS'hula'
p2673
I23
sS'oudi'
p2674
I4
sS'huli'
p2675
I6
sS'mima'
p2676
I3
sS'ibai'
p2677
I1
sS'iban'
p2678
I18
sS'oudu'
p2679
I2
sS'jiuw'
p2680
I2
sS'jiur'
p2681
I1
sS'jius'
p2682
I9
sS'qiyi'
p2683
I1
sS'jiuz'
p2684
I5
sS'uank'
p2685
I3
sS'qiyu'
p2686
I4
sS'uanl'
p2687
I14
sS'jiuj'
p2688
I1
sS'eiwo'
p2689
I1
sS'degu'
p2690
I1
sS'uean'
p2691
I1
sS'gchu'
p2692
I21
sS'sizh'
p2693
I3
sS'gchi'
p2694
I1
sS'kuaj'
p2695
I1
sS'kuai'
p2696
I39
sS'gcha'
p2697
I55
sS'kuan'
p2698
I10
sS'eiwu'
p2699
I1
sS'gche'
p2700
I1
sS'biti'
p2701
I1
sS'uaya'
p2702
I1
sS'gezh'
p2703
I11
sS'gezi'
p2704
I4
sS'geza'
p2705
I1
sS'bobo'
p2706
I2
sS'ieyi'
p2707
I2
sS'alai'
p2708
I14
sS'unqi'
p2709
I1
sS'buto'
p2710
I5
sS'ekua'
p2711
I1
sS'baji'
p2712
I2
sS'quan'
p2713
I31
sS'unqu'
p2714
I1
sS'sihu'
p2715
I2
sS'egua'
p2716
I2
sS'gehe'
p2717
I2
sS'eguo'
p2718
I11
sS'geha'
p2719
I14
sS'gehu'
p2720
I6
sS'uesi'
p2721
I3
sS'uesh'
p2722
I12
sS'duib'
p2723
I2
sS'guzh'
p2724
I3
sS'emei'
p2725
I1
sS'zili'
p2726
I1
sS'renh'
p2727
I1
sS'renj'
p2728
I3
sS'renm'
p2729
I1
sS'diug'
p2730
I2
sS'duil'
p2731
I1
sS'duim'
p2732
I5
sS'cuic'
p2733
I4
sS'diux'
p2734
I1
sS'renw'
p2735
I14
sS'reny'
p2736
I1
sS'duix'
p2737
I1
sS'nazh'
p2738
I2
sS'xuru'
p2739
I1
sS'kush'
p2740
I2
sS'nsho'
p2741
I5
sS'ugou'
p2742
I3
sS'ieni'
p2743
I1
sS'nshe'
p2744
I18
sS'nsha'
p2745
I26
sS'ngri'
p2746
I4
sS'ngro'
p2747
I1
sS'nshu'
p2748
I7
sS'ngra'
p2749
I10
sS'ngre'
p2750
I14
sS'iaog'
p2751
I4
sS'iaof'
p2752
I4
sS'abud'
p2753
I3
sS'iaod'
p2754
I3
sS'iaob'
p2755
I8
sS'iaoa'
p2756
I3
sS'yigo'
p2757
I1
sS'iaon'
p2758
I1
sS'iaom'
p2759
I5
sS'iaol'
p2760
I9
sS'iaoj'
p2761
I14
sS'iaoh'
p2762
I19
sS'paiz'
p2763
I1
sS'yigu'
p2764
I1
sS'paiy'
p2765
I3
sS'iaos'
p2766
I17
sS'abus'
p2767
I1
sS'iaoq'
p2768
I8
sS'iaoz'
p2769
I10
sS'iaoy'
p2770
I8
sS'iaox'
p2771
I13
sS'anch'
p2772
I27
sS'lius'
p2773
I1
sS'suji'
p2774
I2
sS'xudu'
p2775
I14
sS'anca'
p2776
I1
sS'liux'
p2777
I4
sS'erbu'
p2778
I1
sS'liuc'
p2779
I2
sS'uiya'
p2780
I6
sS'liug'
p2781
I1
sS'liuh'
p2782
I1
sS'lium'
p2783
I1
sS'shou'
p2784
I53
sS'yibi'
p2785
I11
sS'iyou'
p2786
I65
sS'elan'
p2787
I1
sS'elao'
p2788
I2
sS'elai'
p2789
I9
sS'tiyi'
p2790
I1
sS'feng'
p2791
I14
sS'otia'
p2792
I5
sS'seha'
p2793
I2
sS'nali'
p2794
I8
sS'otin'
p2795
I1
sS'fenh'
p2796
I1
sS'kesi'
p2797
I1
sS'kesh'
p2798
I12
sS'gulu'
p2799
I4
sS'oyib'
p2800
I1
sS'fenx'
p2801
I1
sS'fenz'
p2802
I3
sS'ihua'
p2803
I32
sS'ihuh'
p2804
I5
sS'ihui'
p2805
I8
sS'ihuo'
p2806
I2
sS'nizi'
p2807
I1
sS'inyu'
p2808
I8
sS'oqiu'
p2809
I1
sS'emia'
p2810
I2
sS'oqia'
p2811
I9
sS'pima'
p2812
I2
sS'oqin'
p2813
I2
sS'inyi'
p2814
I13
sS'erou'
p2815
I2
sS'aoji'
p2816
I45
sS'ench'
p2817
I1
sS'huko'
p2818
I5
sS'ouer'
p2819
I4
sS'yush'
p2820
I3
sS'endu'
p2821
I1
sS'wush'
p2822
I1
sS'gkua'
p2823
I5
sS'hish'
p2824
I4
sS'hisi'
p2825
I3
sS'uoba'
p2826
I7
sS'zoul'
p2827
I13
sS'nuan'
p2828
I2
sS'unlu'
p2829
I3
sS'unli'
p2830
I2
sS'unle'
p2831
I2
sS'manq'
p2832
I2
sS'touc'
p2833
I3
sS'mant'
p2834
I3
sS'aoxu'
p2835
I4
sS'enmi'
p2836
I1
sS'manx'
p2837
I1
sS'touj'
p2838
I1
sS'enme'
p2839
I72
sS'aoqi'
p2840
I14
sS'xion'
p2841
I4
sS'toup'
p2842
I6
sS'tous'
p2843
I1
sS'tout'
p2844
I9
sS'mang'
p2845
I15
sS'toux'
p2846
I1
sS'touy'
p2847
I4
sS'manl'
p2848
I10
sS'oush'
p2849
I22
sS'ixie'
p2850
I12
sS'ixia'
p2851
I15
sS'antu'
p2852
I6
sS'ixin'
p2853
I17
sS'fuwu'
p2854
I4
sS'anto'
p2855
I7
sS'anti'
p2856
I5
sS'ibuz'
p2857
I2
sS'aode'
p2858
I4
sS'geil'
p2859
I3
sS'aoda'
p2860
I20
sS'aodo'
p2861
I2
sS'aodi'
p2862
I7
sS'oden'
p2863
I3
sS'xifu'
p2864
I6
sS'eifa'
p2865
I4
sS'eife'
p2866
I2
sS'kaoj'
p2867
I1
sS'ggex'
p2868
I1
sS'rhua'
p2869
I1
sS'gben'
p2870
I1
sS'kaod'
p2871
I4
sS'gges'
p2872
I2
sS'gger'
p2873
I1
sS'mans'
p2874
I2
sS'zeng'
p2875
I1
sS'yixi'
p2876
I17
sS'keol'
p2877
I1
sS'nliu'
p2878
I1
sS'iuwo'
p2879
I2
sS'touh'
p2880
I1
sS'unbe'
p2881
I1
sS'ipia'
p2882
I2
sS'keos'
p2883
I1
sS'zhuq'
p2884
I2
sS'zhup'
p2885
I4
sS'henm'
p2886
I46
sS'zhur'
p2887
I2
sS'iale'
p2888
I1
sS'heng'
p2889
I255
sS'sush'
p2890
I4
sS'zhuz'
p2891
I3
sS'yido'
p2892
I2
sS'bian'
p2893
I71
sS'biao'
p2894
I3
sS'zhua'
p2895
I45
sS'inji'
p2896
I2
sS'duqi'
p2897
I9
sS'henz'
p2898
I4
sS'zhug'
p2899
I2
sS'zhuf'
p2900
I1
sS'henw'
p2901
I4
sS'fama'
p2902
I2
sS'zhuj'
p2903
I5
sS'zhum'
p2904
I2
sS'zhul'
p2905
I4
sS'zhuo'
p2906
I4
sS'zhun'
p2907
I3
sS'gfan'
p2908
I6
sS'yile'
p2909
I2
sS'buya'
p2910
I7
sS'anba'
p2911
I2
sS'anbe'
p2912
I2
sS'buyu'
p2913
I3
sS'shit'
p2914
I3
sS'anbu'
p2915
I14
sS'duzh'
p2916
I1
sS'dach'
p2917
I1
sS'gseb'
p2918
I1
sS'gsed'
p2919
I1
sS'gseg'
p2920
I2
sS'erhu'
p2921
I1
sS'uola'
p2922
I6
sS'uole'
p2923
I9
sS'aoxi'
p2924
I59
sS'eiti'
p2925
I3
sS'band'
p2926
I5
sS'ndao'
p2927
I15
sS'ndan'
p2928
I17
sS'ndai'
p2929
I6
sS'nfuz'
p2930
I1
sS'manm'
p2931
I6
sS'aifa'
p2932
I1
sS'ndat'
p2933
I3
sS'banf'
p2934
I1
sS'gzha'
p2935
I12
sS'eizi'
p2936
I5
sS'ahuo'
p2937
I2
sS'rxia'
p2938
I1
sS'uopi'
p2939
I1
sS'deda'
p2940
I1
sS'ngon'
p2941
I3
sS'gzhe'
p2942
I36
sS'xied'
p2943
I2
sS'gwai'
p2944
I6
sS'fumu'
p2945
I9
sS'muou'
p2946
I1
sS'obao'
p2947
I1
sS'xixi'
p2948
I2
sS'gwan'
p2949
I3
sS'yiqi'
p2950
I27
sS'iule'
p2951
I3
sS'inxi'
p2952
I4
sS'ohao'
p2953
I5
sS'libi'
p2954
I1
sS'uili'
p2955
I1
sS'liba'
p2956
I7
sS'uile'
p2957
I2
sS'ngqi'
p2958
I50
sS'ngqu'
p2959
I11
sS'duhu'
p2960
I1
sS'dare'
p2961
I2
sS'uela'
p2962
I9
sS'ueli'
p2963
I2
sS'unzi'
p2964
I10
sS'gzhu'
p2965
I14
sS'kulo'
p2966
I2
sS'wozh'
p2967
I3
sS'nbuj'
p2968
I5
sS'nkon'
p2969
I4
sS'nbuq'
p2970
I5
sS'enyi'
p2971
I3
sS'udel'
p2972
I1
sS'nkou'
p2973
I1
sS'uden'
p2974
I6
sS'gpin'
p2975
I5
sS'nbuz'
p2976
I1
sS'udeb'
p2977
I1
sS'exia'
p2978
I52
sS'xina'
p2979
I3
sS'xing'
p2980
I116
sS'exie'
p2981
I5
sS'aoyu'
p2982
I8
sS'enla'
p2983
I8
sS'maoz'
p2984
I3
sS'xinn'
p2985
I2
sS'exin'
p2986
I3
sS'xinl'
p2987
I13
sS'xins'
p2988
I13
sS'outa'
p2989
I2
sS'aoya'
p2990
I4
sS'aoye'
p2991
I55
sS'tubu'
p2992
I2
sS'xinx'
p2993
I1
sS'maom'
p2994
I1
sS'outo'
p2995
I7
sS'gxin'
p2996
I17
sS'gxih'
p2997
I1
sS'habu'
p2998
I3
sS'gxie'
p2999
I5
sS'gxia'
p3000
I26
sS'\x91uer'
p3001
I1
sS'idui'
p3002
I7
sS'iduj'
p3003
I2
sS'habe'
p3004
I3
sS'gxiu'
p3005
I4
sS'gxir'
p3006
I1
sS'idua'
p3007
I3
sS'usha'
p3008
I20
sS'diba'
p3009
I4
sS'feic'
p3010
I33
sS'feid'
p3011
I1
sS'ushe'
p3012
I15
sS'feig'
p3013
I1
sS'ushi'
p3014
I44
sS'uibi'
p3015
I4
sS'chon'
p3016
I13
sS'usho'
p3017
I2
sS'feip'
p3018
I2
sS'ohou'
p3019
I4
sS'naoz'
p3020
I1
sS'ushu'
p3021
I14
sS'feiw'
p3022
I1
sS'feix'
p3023
I1
sS'eyua'
p3024
I10
sS'qied'
p3025
I1
sS'jiaj'
p3026
I1
sS'youl'
p3027
I2
sS'eyue'
p3028
I9
sS'youj'
p3029
I6
sS'jian'
p3030
I127
sS'jiao'
p3031
I133
sS'youg'
p3032
I1
sS'youe'
p3033
I3
sS'youd'
p3034
I4
sS'iaqu'
p3035
I5
sS'youb'
p3036
I3
sS'iaqi'
p3037
I2
sS'uail'
p3038
I2
sS'jiaz'
p3039
I8
sS'uaik'
p3040
I1
sS'youx'
p3041
I5
sS'yiya'
p3042
I18
sS'jiaq'
p3043
I1
sS'jiar'
p3044
I1
sS'jias'
p3045
I1
sS'jiat'
p3046
I4
sS'youq'
p3047
I3
sS'ezaz'
p3048
I1
sS'budu'
p3049
I4
sS'aren'
p3050
I3
sS'sebo'
p3051
I1
sS'buda'
p3052
I6
sS'ngbu'
p3053
I9
sS'bude'
p3054
I5
sS'ezai'
p3055
I1
sS'budi'
p3056
I1
sS'unai'
p3057
I1
sS'unan'
p3058
I4
sS'zuig'
p3059
I1
sS'aoka'
p3060
I3
sS'huji'
p3061
I16
sS'oufe'
p3062
I1
sS'egec'
p3063
I3
sS'apia'
p3064
I14
sS'eged'
p3065
I1
sS'apin'
p3066
I1
sS'aoku'
p3067
I1
sS'egen'
p3068
I1
sS'egem'
p3069
I2
sS'ngke'
p3070
I12
sS'rush'
p3071
I1
sS'qiwa'
p3072
I2
sS'eyil'
p3073
I1
sS'uifa'
p3074
I3
sS'gong'
p3075
I35
sS'uman'
p3076
I1
sS'uome'
p3077
I1
sS'uomi'
p3078
I4
sS'yiwu'
p3079
I2
sS'uhan'
p3080
I2
sS'uhao'
p3081
I2
sS'njin'
p3082
I34
sS'yiwe'
p3083
I2
sS'yiwa'
p3084
I1
sS'zuis'
p3085
I1
sS'njia'
p3086
I31
sS'ilai'
p3087
I32
sS'siji'
p3088
I1
sS'cove'
p3089
I13
sS'nren'
p3090
I14
sS'ansh'
p3091
I113
sS'ansi'
p3092
I1
sS'anse'
p3093
I5
sS'adax'
p3094
I1
sS'wanz'
p3095
I2
sS'geji'
p3096
I11
sS'nitu'
p3097
I2
sS'eigu'
p3098
I5
sS'lanz'
p3099
I2
sS'ueqi'
p3100
I3
sS'ouhu'
p3101
I4
sS'kaoz'
p3102
I2
sS'gduh'
p3103
I1
sS'adao'
p3104
I5
sS'ngpa'
p3105
I16
sS'duoj'
p3106
I2
sS'ngpe'
p3107
I1
sS'zuox'
p3108
I1
sS'zuoy'
p3109
I4
sS'ngpi'
p3110
I6
sS'zuow'
p3111
I1
sS'duob'
p3112
I7
sS'zuor'
p3113
I1
sS'ngpo'
p3114
I1
sS'zuol'
p3115
I1
sS'zuom'
p3116
I1
sS'lian'
p3117
I134
sS'zuog'
p3118
I4
sS'taoc'
p3119
I1
sS'zuob'
p3120
I2
sS'uemo'
p3121
I1
sS'taiz'
p3122
I2
sS'inia'
p3123
I1
sS'inin'
p3124
I1
sS'taiw'
p3125
I3
sS'tait'
p3126
I1
sS'gjiu'
p3127
I2
sS'taiq'
p3128
I2
sS'ugan'
p3129
I2
sS'gjin'
p3130
I15
sS'rizi'
p3131
I2
sS'gjia'
p3132
I21
sS'taid'
p3133
I1
sS'uyin'
p3134
I2
sS'paoq'
p3135
I3
sS'hemi'
p3136
I1
sS'iami'
p3137
I6
sS'song'
p3138
I11
sS'paox'
p3139
I1
sS'paoz'
p3140
I2
sS'uren'
p3141
I7
sS'heme'
p3142
I3
sS'paod'
p3143
I6
sS'paok'
p3144
I1
sS'paol'
p3145
I3
sS'utia'
p3146
I2
sS'fale'
p3147
I2
sS'aoha'
p3148
I7
sS'sans'
p3149
I9
sS'suoy'
p3150
I16
sS'ekai'
p3151
I4
sS'ekao'
p3152
I2
sS'ekan'
p3153
I2
sS'buxi'
p3154
I8
sS'lish'
p3155
I2
sS'sang'
p3156
I2
sS'emuo'
p3157
I1
sS'ang:'
p3158
I1
sS'peol'
p3159
I1
sS'hicu'
p3160
I1
sS'pash'
p3161
I6
sS'ganj'
p3162
I3
sS'nzhu'
p3163
I5
sS'zere'
p3164
I1
sS'gkeb'
p3165
I2
sS'hich'
p3166
I6
sS'gked'
p3167
I2
sS'dian'
p3168
I42
sS'diao'
p3169
I15
sS'leiy'
p3170
I1
sS'oton'
p3171
I1
sS'guni'
p3172
I4
sS'leis'
p3173
I1
sS'daoq'
p3174
I1
sS'nang'
p3175
I5
sS'nanf'
p3176
I3
sS'daol'
p3177
I26
sS'uicu'
p3178
I4
sS'daoj'
p3179
I1
sS'aile'
p3180
I24
sS'wome'
p3181
I104
sS'nans'
p3182
I1
sS'aili'
p3183
I8
sS'aidu'
p3184
I2
sS'guns'
p3185
I1
sS'muli'
p3186
I2
sS'iran'
p3187
I25
sS'laog'
p3188
I2
sS'fule'
p3189
I1
sS'deyi'
p3190
I1
sS'uoqi'
p3191
I5
sS'uoqu'
p3192
I14
sS'ngni'
p3193
I12
sS'uoyo'
p3194
I5
sS'oyux'
p3195
I1
sS'iuma'
p3196
I1
sS'inwe'
p3197
I22
sS'hime'
p3198
I1
sS'huil'
p3199
I7
sS'huim'
p3200
I1
sS'huij'
p3201
I22
sS'huif'
p3202
I2
sS'huig'
p3203
I3
sS'huid'
p3204
I7
sS'huib'
p3205
I2
sS'huic'
p3206
I2
sS'iala'
p3207
I13
sS'huiz'
p3208
I8
sS'aota'
p3209
I3
sS'tuis'
p3210
I1
sS'huiw'
p3211
I2
sS'huit'
p3212
I1
sS'aoto'
p3213
I3
sS'huir'
p3214
I3
sS'aoti'
p3215
I9
sS'huiq'
p3216
I3
sS'qiti'
p3217
I8
sS'qito'
p3218
I1
sS'qita'
p3219
I5
sS'gbux'
p3220
I2
sS'puke'
p3221
I1
sS'eran'
p3222
I1
sS'zhux'
p3223
I2
sS'shuf'
p3224
I1
sS'gbuj'
p3225
I2
sS'nrul'
p3226
I1
sS'aizh'
p3227
I20
sS'aizi'
p3228
I39
sS'hend'
p3229
I2
sS'aizo'
p3230
I1
sS'itai'
p3231
I4
sS'angf'
p3232
I10
sS'itan'
p3233
I3
sS'glai'
p3234
I2
sS'inju'
p3235
I4
sS'aizu'
p3236
I5
sS'oyua'
p3237
I3
sS'nong'
p3238
I22
sS'houw'
p3239
I4
sS'tuan'
p3240
I1
sS'houq'
p3241
I8
sS'hous'
p3242
I1
sS'aozu'
p3243
I1
sS'zhuc'
p3244
I3
sS'houz'
p3245
I2
sS'houd'
p3246
I8
sS'ense'
p3247
I1
sS'houf'
p3248
I1
sS'ijue'
p3249
I3
sS'aozh'
p3250
I22
sS'houc'
p3251
I1
sS'houl'
p3252
I19
sS'houm'
p3253
I13
sS'hume'
p3254
I1
sS'ensh'
p3255
I15
sS'houj'
p3256
I2
sS'aoza'
p3257
I3
sS'ango'
p3258
I3
sS'lude'
p3259
I3
sS'heny'
p3260
I2
sS'eida'
p3261
I2
sS'axie'
p3262
I4
sS'henx'
p3263
I6
sS'axia'
p3264
I6
sS'zhui'
p3265
I3
sS'eidu'
p3266
I1
sS'anro'
p3267
I1
sS'iong'
p3268
I6
sS'anra'
p3269
I2
sS'qush'
p3270
I2
sS'anre'
p3271
I11
sS'geku'
p3272
I1
sS'angt'
p3273
I4
sS'aofa'
p3274
I4
sS'huga'
p3275
I1
sS'angu'
p3276
I10
sS'nwan'
p3277
I2
sS'hens'
p3278
I3
sS'hugu'
p3279
I1
sS'geka'
p3280
I1
sS'aofu'
p3281
I9
sS'angq'
p3282
I6
sS'izuf'
p3283
I5
sS'uany'
p3284
I15
sS'uanz'
p3285
I34
sS'angr'
p3286
I13
sS'uanp'
p3287
I1
sS'izuo'
p3288
I4
sS'ofan'
p3289
I2
sS'uans'
p3290
I22
sS'uant'
p3291
I3
sS'anbi'
p3292
I1
sS'uanw'
p3293
I13
sS'uanh'
p3294
I6
sS'uanj'
p3295
I6
sS'okan'
p3296
I2
sS'okai'
p3297
I1
sS'uanm'
p3298
I3
sS'uanb'
p3299
I1
sS'uanc'
p3300
I5
sS'uand'
p3301
I7
sS'uanf'
p3302
I2
sS'uang'
p3303
I101
sS'daye'
p3304
I4
sS'uzer'
p3305
I1
sS'xuxu'
p3306
I2
sS'bugu'
p3307
I13
sS'bugo'
p3308
I2
sS'rshi'
p3309
I6
sS'buga'
p3310
I1
sS'pans'
p3311
I3
sS'haoh'
p3312
I4
sS'panw'
p3313
I1
sS'nfan'
p3314
I10
sS'pant'
p3315
I1
sS'xuan'
p3316
I4
sS'yiba'
p3317
I11
sS'haoj'
p3318
I20
sS'eton'
p3319
I1
sS'pang'
p3320
I26
sS'panj'
p3321
I2
sS'heli'
p3322
I7
sS'iaju'
p3323
I1
sS'iede'
p3324
I1
sS'peng'
p3325
I27
sS'lire'
p3326
I3
sS'zhec'
p3327
I2
sS'zheb'
p3328
I3
sS'zhed'
p3329
I2
sS'zheg'
p3330
I10
sS'zhef'
p3331
I1
sS'died'
p3332
I3
sS'zhej'
p3333
I15
sS'zhem'
p3334
I4
sS'zhel'
p3335
I2
sS'zhen'
p3336
I64
sS'zheq'
p3337
I1
sS'zhes'
p3338
I11
sS'zher'
p3339
I4
sS'eizh'
p3340
I5
sS'zhet'
p3341
I1
sS'zhew'
p3342
I1
sS'uoni'
p3343
I1
sS'zhey'
p3344
I12
sS'zhex'
p3345
I5
sS'zhez'
p3346
I4
sS'quda'
p3347
I1
sS'haoc'
p3348
I1
sS'duzi'
p3349
I3
sS'yiti'
p3350
I11
sS'yito'
p3351
I1
sS'guaq'
p3352
I1
sS'uore'
p3353
I1
sS'udia'
p3354
I4
sS'neiz'
p3355
I2
sS'ngmi'
p3356
I16
sS'haoq'
p3357
I1
sS'efan'
p3358
I2
sS'ngma'
p3359
I14
sS'ngme'
p3360
I8
sS'dapa'
p3361
I10
sS'heza'
p3362
I1
sS'gzuo'
p3363
I23
sS'hezi'
p3364
I4
sS'hezh'
p3365
I5
sS'suoj'
p3366
I1
sS'hili'
p3367
I5
sS'hezu'
p3368
I1
sS'hent'
p3369
I2
sS'etan'
p3370
I8
sS'hile'
p3371
I6
sS'etai'
p3372
I1
sS'suoz'
p3373
I4
sS'laba'
p3374
I2
sS'houy'
p3375
I1
sS'duna'
p3376
I1
sS'gyon'
p3377
I5
sS'gyou'
p3378
I20
sS'uira'
p3379
I23
sS'zunc'
p3380
I2
sS'gdai'
p3381
I2
sS'gdan'
p3382
I18
sS'gdao'
p3383
I25
sS'bash'
p3384
I1
sS'eniu'
p3385
I1
sS'ueji'
p3386
I3
sS'\xc4\x80nj'
p3387
I1
sS'kunc'
p3388
I1
sS'inhu'
p3389
I2
sS'fiao'
p3390
I1
sS'kunn'
p3391
I2
sS'ding'
p3392
I21
sS'ujid'
p3393
I6
sS'ujia'
p3394
I34
sS'ujin'
p3395
I15
sS'guan'
p3396
I50
sS'nach'
p3397
I3
sS'guai'
p3398
I16
sS'kexi'
p3399
I1
sS'ujiu'
p3400
I20
sS'dong'
p3401
I52
sS'guaz'
p3402
I5
sS'xili'
p3403
I3
sS'eipa'
p3404
I2
sS'nian'
p3405
I139
sS'enre'
p3406
I1
sS'niao'
p3407
I1
sS'fuyu'
p3408
I1
sS'mama'
p3409
I8
sS'huzi'
p3410
I3
sS'huzh'
p3411
I2
sS'hibu'
p3412
I4
sS'akai'
p3413
I8
sS'gaod'
p3414
I3
sS'aoro'
p3415
I2
sS'wudi'
p3416
I3
sS'ayid'
p3417
I2
sS'hiba'
p3418
I2
sS'hibi'
p3419
I1
sS'guoh'
p3420
I3
sS'guoj'
p3421
I5
sS'guom'
p3422
I4
sS'guol'
p3423
I12
sS'guon'
p3424
I1
sS'jinx'
p3425
I3
sS'dans'
p3426
I53
sS'danr'
p3427
I8
sS'guoy'
p3428
I2
sS'onan'
p3429
I9
sS'guoz'
p3430
I1
sS'aimi'
p3431
I15
sS'danj'
p3432
I2
sS'guoq'
p3433
I16
sS'nbei'
p3434
I3
sS'aima'
p3435
I1
sS'naqi'
p3436
I2
sS'ubia'
p3437
I6
sS'ufen'
p3438
I5
sS'ufei'
p3439
I8
sS'qich'
p3440
I12
sS'ages'
p3441
I2
sS'nnan'
p3442
I2
sS'nhuo'
p3443
I6
sS'aiti'
p3444
I1
sS'rugu'
p3445
I9
sS'nhua'
p3446
I8
sS'nuli'
p3447
I2
sS'jici'
p3448
I5
sS'iben'
p3449
I5
sS'ubud'
p3450
I1
sS'ibei'
p3451
I6
sS'miao'
p3452
I3
sS'mian'
p3453
I95
sS'ungu'
p3454
I1
sS'nlua'
p3455
I3
sS'ubuq'
p3456
I1
sS'bufe'
p3457
I5
sS'xiul'
p3458
I3
sS'nlun'
p3459
I2
sS'ouxu'
p3460
I1
sS'xibe'
p3461
I1
sS'xiuj'
p3462
I1
sS'amao'
p3463
I1
sS'iful'
p3464
I1
sS'ifur'
p3465
I1
sS'huhu'
p3466
I6
sS'ouxi'
p3467
I5
sS'qiut'
p3468
I2
sS'qiuq'
p3469
I2
sS'jiqi'
p3470
I1
sS'dahe'
p3471
I3
sS'qiuh'
p3472
I1
sS'gshi'
p3473
I21
sS'gsho'
p3474
I1
sS'gsha'
p3475
I4
sS'dail'
p3476
I7
sS'gshe'
p3477
I4
sS'gshu'
p3478
I3
sS'urus'
p3479
I1
sS'quec'
p3480
I2
sS'queb'
p3481
I2
sS'quef'
p3482
I1
sS'ukou'
p3483
I5
sS'queh'
p3484
I2
sS'quek'
p3485
I2
sS'eyin'
p3486
I2
sS'ikou'
p3487
I1
sS'eyih'
p3488
I1
sS'anqi'
p3489
I27
sS'queq'
p3490
I3
sS'anqu'
p3491
I12
sS'eyis'
p3492
I5
sS'zugo'
p3493
I1
sS'quey'
p3494
I3
sS'quex'
p3495
I1
sS'meih'
p3496
I2
sS'meim'
p3497
I3
sS'haos'
p3498
I12
sS'meig'
p3499
I4
sS'hese'
p3500
I1
sS'meiy'
p3501
I48
sS'buhe'
p3502
I1
sS'sile'
p3503
I1
sS'buha'
p3504
I1
sS'meis'
p3505
I2
sS'meir'
p3506
I3
sS'meit'
p3507
I3
sS'gelu'
p3508
I1
sS'hufa'
p3509
I1
sS'aoge'
p3510
I2
sS'ouji'
p3511
I10
sS'aoga'
p3512
I1
sS'gela'
p3513
I3
sS'hufu'
p3514
I2
sS'aogu'
p3515
I8
sS'geli'
p3516
I1
sS'nsua'
p3517
I3
sS'azho'
p3518
I6
sS'azhe'
p3519
I11
sS'azha'
p3520
I18
sS'bozi'
p3521
I2
sS'azhu'
p3522
I9
sS'uish'
p3523
I3
sS'ingl'
p3524
I11
sS'ubin'
p3525
I6
sS'ingn'
p3526
I3
sS'ingh'
p3527
I3
sS'fand'
p3528
I1
sS'ingj'
p3529
I12
sS'ingk'
p3530
I4
sS'ingd'
p3531
I17
sS'inge'
p3532
I3
sS'ingf'
p3533
I15
sS'ingg'
p3534
I13
sS'fanm'
p3535
I4
sS'aimo'
p3536
I1
sS'ingb'
p3537
I9
sS'ingc'
p3538
I37
sS'ingx'
p3539
I14
sS'ingy'
p3540
I11
sS'ingz'
p3541
I19
sS'ingu'
p3542
I4
sS'fanz'
p3543
I7
sS'ingp'
p3544
I10
sS'ingq'
p3545
I41
sS'ingr'
p3546
I7
sS'ings'
p3547
I9
sS'nchu'
p3548
I7
sS'liqi'
p3549
I26
sS'eban'
p3550
I1
sS'ncho'
p3551
I1
sS'ebao'
p3552
I4
sS'nche'
p3553
I22
sS'ncha'
p3554
I1
sS'guos'
p3555
I2
sS'ikai'
p3556
I13
sS'afan'
p3557
I2
sS'buzh'
p3558
I5
sS'waiz'
p3559
I5
sS'riji'
p3560
I13
sS'opao'
p3561
I2
sS'uwo*'
p3562
I2
sS'buza'
p3563
I2
sS'danb'
p3564
I1
sS'hera'
p3565
I1
sS'hewe'
p3566
I1
sS'ijia'
p3567
I60
sS'ehub'
p3568
I6
sS'oyeh'
p3569
I3
sS'ehui'
p3570
I7
sS'yizh'
p3571
I12
sS'ejie'
p3572
I7
sS'ejia'
p3573
I26
sS'ejin'
p3574
I1
sS'ejil'
p3575
I1
sS'laod'
p3576
I1
sS'zizh'
p3577
I4
sS'waip'
p3578
I8
sS'ngla'
p3579
I2
sS'laob'
p3580
I3
sS'ziza'
p3581
I1
sS'jura'
p3582
I1
sS'nglo'
p3583
I11
sS'ngli'
p3584
I12
sS'aiju'
p3585
I3
sS'laoj'
p3586
I7
sS'laot'
p3587
I1
sS'teul'
p3588
I1
sS'laor'
p3589
I2
sS'laos'
p3590
I26
sS'ntan'
p3591
I2
sS'laoy'
p3592
I53
sS'dame'
p3593
I11
sS'imao'
p3594
I2
sS'iman'
p3595
I4
sS'uosh'
p3596
I4
sS'nnao'
p3597
I1
sS'ebie'
p3598
I11
sS'ebia'
p3599
I3
sS'gjun'
p3600
I7
sS'eduo'
p3601
I7
sS'genz'
p3602
I4
sS'ahad'
p3603
I1
sS'heyo'
p3604
I1
sS'heyi'
p3605
I2
sS'zazh'
p3606
I1
sS'ahan'
p3607
I1
sS'ajiu'
p3608
I1
sS'ahai'
p3609
I2
sS'heya'
p3610
I10
sS'pian'
p3611
I24
sS'piao'
p3612
I7
sS'xiab'
p3613
I1
sS'ouyu'
p3614
I6
sS'engl'
p3615
I35
sS'engm'
p3616
I7
sS'engn'
p3617
I1
sS'uxin'
p3618
I4
sS'genr'
p3619
I1
sS'engb'
p3620
I6
sS'owen'
p3621
I1
sS'xian'
p3622
I217
sS'xiao'
p3623
I147
sS'engf'
p3624
I6
sS'xiam'
p3625
I6
sS'engx'
p3626
I3
sS'engy'
p3627
I41
sS'engz'
p3628
I19
sS'xiaq'
p3629
I5
sS'xiaw'
p3630
I16
sS'xiat'
p3631
I8
sS'engp'
p3632
I7
sS'engq'
p3633
I9
sS'engr'
p3634
I6
sS'engs'
p3635
I5
sS'engt'
p3636
I4
sS'engu'
p3637
I1
sS'ouyi'
p3638
I6
sS'shas'
p3639
I2
sS'igon'
p3640
I3
sS'wuwu'
p3641
I1
sS'shat'
p3642
I11
sS'hiwa'
p3643
I4
sS'ohai'
p3644
I3
sS'qire'
p3645
I1
sS'shai'
p3646
I1
sS'shan'
p3647
I202
sS'shao'
p3648
I42
sS'yidi'
p3649
I18
sS'nabi'
p3650
I3
sS'obin'
p3651
I1
sS'dime'
p3652
I9
sS'obia'
p3653
I2
sS'keyu'
p3654
I3
sS'keyi'
p3655
I28
sS'dahu'
p3656
I1
sS'nxin'
p3657
I10
sS'nxia'
p3658
I11
sS'yuan'
p3659
I111
sS'nxie'
p3660
I2
sS'aixi'
p3661
I4
sS'iruo'
p3662
I2
sS'abia'
p3663
I4
sS'iwen'
p3664
I1
sS'huyu'
p3665
I25
sS'iwei'
p3666
I4
sS'ouwo'
p3667
I4
sS'huyi'
p3668
I4
sS'bucu'
p3669
I3
sS'xish'
p3670
I2
sS'iziz'
p3671
I4
sS'ncun'
p3672
I1
sS'ierx'
p3673
I1
sS'eiji'
p3674
I3
sS'ierz'
p3675
I1
sS'ianf'
p3676
I2
sS'unta'
p3677
I2
sS'nxux'
p3678
I1
sS'buke'
p3679
I1
sS'unti'
p3680
I1
sS'iere'
p3681
I8
sS'fang'
p3682
I102
sS'paji'
p3683
I2
sS'gemu'
p3684
I2
sS'uala'
p3685
I3
sS'ggai'
p3686
I7
sS'ouka'
p3687
I1
sS'uagu'
p3688
I1
sS'ggao'
p3689
I1
sS'ggan'
p3690
I1
sS'inlu'
p3691
I1
sS'gema'
p3692
I2
sS'uche'
p3693
I2
sS'geme'
p3694
I1
sS'gemi'
p3695
I1
sS'gbai'
p3696
I4
sS'iele'
p3697
I1
sS'jibu'
p3698
I3
sS'gban'
p3699
I11
sS'gbao'
p3700
I18
sS'jibe'
p3701
I2
sS'gsua'
p3702
I1
sS'huog'
p3703
I1
sS'yifu'
p3704
I5
sS'ntou'
p3705
I5
sS'limi'
p3706
I8
sS'eche'
p3707
I4
sS'ianp'
p3708
I1
sS'unfa'
p3709
I6
sS'xinq'
p3710
I3
sS'iahu'
p3711
I2
sS'nman'
p3712
I5
sS'nmao'
p3713
I2
sS'ngfu'
p3714
I13
sS'heji'
p3715
I15
sS'oban'
p3716
I13
sS'quxi'
p3717
I2
sS'anni'
p3718
I1
sS'epia'
p3719
I1
sS'anna'
p3720
I1
sS'weiz'
p3721
I1
sS'weiy'
p3722
I4
sS'xues'
p3723
I11
sS'weiw'
p3724
I1
sS'achu'
p3725
I9
sS'yiza'
p3726
I1
sS'juji'
p3727
I1
sS'weir'
p3728
I2
sS'weiq'
p3729
I4
sS'gman'
p3730
I14
sS'weil'
p3731
I13
sS'weik'
p3732
I5
sS'achi'
p3733
I2
sS'odon'
p3734
I5
sS'weif'
p3735
I2
sS'jial'
p3736
I30
sS'weid'
p3737
I1
sS'anpa'
p3738
I2
sS'mosu'
p3739
I3
sS'ruhe'
p3740
I2
sS'qing'
p3741
I154
sS'nden'
p3742
I4
sS'anpi'
p3743
I1
sS'gere'
p3744
I35
sS'iazh'
p3745
I8
sS'iazi'
p3746
I4
sS'qinw'
p3747
I1
sS'qinq'
p3748
I4
sS'bish'
p3749
I1
sS'yehu'
p3750
I3
sS'yire'
p3751
I1
sS'okuo'
p3752
I1
sS'ohua'
p3753
I13
sS'gqin'
p3754
I6
sS'gqil'
p3755
I3
sS'gqia'
p3756
I13
sS'inti'
p3757
I1
sS'gqie'
p3758
I6
sS'gqiy'
p3759
I1
sS'gqiu'
p3760
I1
sS'gqit'
p3761
I11
sS'hexi'
p3762
I5
sS'suib'
p3763
I4
sS'suid'
p3764
I1
sS'ache'
p3765
I1
sS'long'
p3766
I16
sS'suir'
p3767
I23
sS'fash'
p3768
I1
sS'sich'
p3769
I6
sS'linz'
p3770
I4
sS'gyin'
p3771
I20
sS'atou'
p3772
I4
sS'xuej'
p3773
I1
sS'linj'
p3774
I4
sS'ling'
p3775
I14
sS'iaor'
p3776
I1
sS'linc'
p3777
I1
sS'maji'
p3778
I3
sS'hair'
p3779
I3
sS'uobu'
p3780
I2
sS'iura'
p3781
I1
sS'geqi'
p3782
I2
sS'gequ'
p3783
I1
sS'uehe'
p3784
I1
sS'ueha'
p3785
I2
sS'kuha'
p3786
I1
sS'uobi'
p3787
I2
sS'chab'
p3788
I6
sS'baba'
p3789
I33
sS'aiyu'
p3790
I8
sS'chag'
p3791
I1
sS'chad'
p3792
I1
sS'chaj'
p3793
I2
sS'chai'
p3794
I2
sS'chan'
p3795
I166
sS'chao'
p3796
I26
sS'ibuq'
p3797
I7
sS'aiya'
p3798
I6
sS'gpen'
p3799
I1
sS'nbia'
p3800
I1
sS'ibug'
p3801
I2
sS'chay'
p3802
I2
sS'aiyo'
p3803
I3
sS'huxu'
p3804
I1
sS'zhao'
p3805
I38
sS'huxi'
p3806
I14
sS'me\xe2\x80'
p3807
I1
sS'xire'
p3808
I1
sS'huqu'
p3809
I12
sS'tufe'
p3810
I7
sS'ifen'
p3811
I6
sS'dale'
p3812
I2
sS'ozha'
p3813
I1
sS'leng'
p3814
I9
sS'ozhe'
p3815
I51
sS'\xc3\x80nz'
p3816
I1
sS'ozhi'
p3817
I6
sS'dali'
p3818
I3
sS'dalu'
p3819
I1
sS'yanl'
p3820
I3
sS'puzh'
p3821
I1
sS'ozhu'
p3822
I2
sS'gxue'
p3823
I9
sS'lang'
p3824
I3
sS'ngka'
p3825
I2
sS'exif'
p3826
I1
sS'lann'
p3827
I1
sS'uife'
p3828
I1
sS'aiku'
p3829
I1
sS'ngko'
p3830
I2
sS'xink'
p3831
I2
sS'ngku'
p3832
I5
sS'shil'
p3833
I9
sS'gdua'
p3834
I1
sS'nash'
p3835
I24
sS'uifu'
p3836
I3
sS'lany'
p3837
I1
sS'nzho'
p3838
I5
sS'nzhi'
p3839
I9
sS'qiao'
p3840
I20
sS'qian'
p3841
I95
sS'ganz'
p3842
I1
sS'nzhe'
p3843
I41
sS'nzha'
p3844
I10
sS'shim'
p3845
I1
sS'gang'
p3846
I10
sS'gand'
p3847
I9
sS'qiaq'
p3848
I1
sS'gank'
p3849
I3
sS'ganh'
p3850
I4
sS'ganm'
p3851
I1
sS'maoc'
p3852
I1
sS'nkan'
p3853
I4
sS'seng'
p3854
I1
sS'ulia'
p3855
I2
sS'meya'
p3856
I5
sS'ulin'
p3857
I4
sS'erzi'
p3858
I6
sS'agui'
p3859
I1
sS'anhe'
p3860
I1
sS'enfa'
p3861
I2
sS'phos'
p3862
I1
sS'jish'
p3863
I2
sS'iezi'
p3864
I5
sS'jisu'
p3865
I1
sS'aowe'
p3866
I1
sS'ouzh'
p3867
I5
sS'aowa'
p3868
I2
sS'aoyi'
p3869
I1
sS'udin'
p3870
I4
sS'nlei'
p3871
I4
sS'olai'
p3872
I9
sS'olao'
p3873
I1
sS'kezh'
p3874
I4
sS'nlen'
p3875
I1
sS'qish'
p3876
I4
sS'xiaz'
p3877
I4
sS'ocha'
p3878
I7
sS'jume'
p3879
I1
sS'oche'
p3880
I13
sS'jumi'
p3881
I1
sS'popo'
p3882
I2
sS'ochu'
p3883
I3
sS'oron'
p3884
I2
sS'izhe'
p3885
I48
sS'lizh'
p3886
I4
sS'izha'
p3887
I12
sS'qion'
p3888
I1
sS'izho'
p3889
I7
sS'izhi'
p3890
I9
sS'eyon'
p3891
I1
sS'zhus'
p3892
I1
sS'izhu'
p3893
I14
sS'weis'
p3894
I8
sS'yisi'
p3895
I6
sS'yish'
p3896
I11
sS'eyou'
p3897
I3
sS'uash'
p3898
I2
sS'nhai'
p3899
I2
sS'ibia'
p3900
I19
sS'odak'
p3901
I1
sS'ibin'
p3902
I1
sS'nung'
p3903
I1
sS'buji'
p3904
I30
sS'iesh'
p3905
I14
sS'eiku'
p3906
I5
sS'xiay'
p3907
I1
sS'ouli'
p3908
I1
sS'anma'
p3909
I14
sS'aoao'
p3910
I3
sS'oulo'
p3911
I2
sS'oula'
p3912
I13
sS'uciy'
p3913
I1
sS'agua'
p3914
I1
sS'oule'
p3915
I10
sS'ajia'
p3916
I19
sS'genj'
p3917
I3
sS'geni'
p3918
I1
sS'geng'
p3919
I17
sS'gene'
p3920
I2
sS'ajin'
p3921
I2
sS'oulu'
p3922
I8
sS'yuel'
p3923
I11
sS'uiqu'
p3924
I2
sS'ugei'
p3925
I2
sS'ziji'
p3926
I17
sS'kusa'
p3927
I1
sS'uiqi'
p3928
I1
sS'\xc4\x80iy'
p3929
I2
sS'eyij'
p3930
I2
sS'cila'
p3931
I1
sS'kuiy'
p3932
I6
sS'yueb'
p3933
I2
sS'from'
p3934
I13
sS'ucua'
p3935
I2
sS'iush'
p3936
I10
sS'ucuo'
p3937
I3
sS'yued'
p3938
I10
sS'uoch'
p3939
I1
sS'igug'
p3940
I1
sS'isan'
p3941
I1
sS'igua'
p3942
I10
sS'iguo'
p3943
I15
sS'econ'
p3944
I1
sS'heis'
p3945
I4
sS'igus'
p3946
I1
sS'heih'
p3947
I9
sS'uran'
p3948
I15
sS'maor'
p3949
I1
sS'heib'
p3950
I1
sS'uiba'
p3951
I1
sS'zhuy'
p3952
I4
sS'\x80iya'
p3953
I2
sS'alia'
p3954
I3
sS'eiyo'
p3955
I48
sS'eiyi'
p3956
I4
sS'anmu'
p3957
I1
sS'eiyu'
p3958
I1
sS'anmi'
p3959
I12
sS'phoi'
p3960
I1
sS'alir'
p3961
I1
sS'uetu'
p3962
I1
sS'anme'
p3963
I1
sS'daka'
p3964
I8
sS'osuo'
p3965
I3
sS'osug'
p3966
I3
sS'sudu'
p3967
I3
sS'ikez'
p3968
I4
sS'aihu'
p3969
I3
sS'daku'
p3970
I3
sS'beng'
p3971
I5
sS'higa'
p3972
I1
sS'ziyo'
p3973
I1
sS'benl'
p3974
I8
sS'uibu'
p3975
I4
sS'uiga'
p3976
I2
sS'cuan'
p3977
I5
sS'ngju'
p3978
I11
sS'zidi'
p3979
I1
sS'chou'
p3980
I2
sS'iwuw'
p3981
I1
sS'insh'
p3982
I15
sS'tieg'
p3983
I1
sS'iren'
p3984
I9
sS'elua'
p3985
I1
sS'fuha'
p3986
I1
sS'xiwa'
p3987
I1
sS'iwuj'
p3988
I2
sS'hegu'
p3989
I1
sS'ikui'
p3990
I5
sS'\xe2\x80\x9dn'
p3991
I1
sS'ikua'
p3992
I2
sS'erzh'
p3993
I1
sS'gren'
p3994
I14
sS'hege'
p3995
I8
sS'ehen'
p3996
I3
sS'hego'
p3997
I2
sS'ngji'
p3998
I44
sS'jira'
p3999
I1
sS'elia'
p4000
I10
sS'hebi'
p4001
I3
sS'elin'
p4002
I1
sS'youm'
p4003
I6
sS'aopi'
p4004
I1
sS'wawa'
p4005
I4
sS'enen'
p4006
I2
sS'uaiy'
p4007
I1
sS'yibe'
p4008
I5
sS'xigu'
p4009
I1
sS'iali'
p4010
I30
sS'qiec'
p4011
I1
sS'glei'
p4012
I1
sS'uaiz'
p4013
I4
sS'gkou'
p4014
I2
sS'uken'
p4015
I1
sS'jiab'
p4016
I1
sS'ntui'
p4017
I1
sS'qien'
p4018
I1
sS'niba'
p4019
I1
sS'idin'
p4020
I9
sS'ougu'
p4021
I2
sS'guda'
p4022
I2
sS'nada'
p4023
I1
sS'ghui'
p4024
I5
sS'ghuo'
p4025
I12
sS'wowo'
p4026
I2
sS'odia'
p4027
I1
sS'fuzh'
p4028
I1
sS'ebei'
p4029
I4
sS'fuze'
p4030
I1
sS'enwu'
p4031
I12
sS'edin'
p4032
I3
sS'uigu'
p4033
I2
sS'edid'
p4034
I11
sS'edie'
p4035
I4
sS'iyis'
p4036
I1
sS'enwe'
p4037
I6
sS'iyiw'
p4038
I1
sS'youy'
p4039
I6
sS'seyi'
p4040
I2
sS'eiha'
p4041
I1
sS'shu:'
p4042
I1
sS'eihe'
p4043
I4
sS'bumi'
p4044
I1
sS'dang'
p4045
I50
sS'seyu'
p4046
I1
sS'uaid'
p4047
I1
sS'aiqi'
p4048
I2
sS'uaig'
p4049
I4
sS'junt'
p4050
I2
sS'eihu'
p4051
I7
sS'huch'
p4052
I3
sS'huci'
p4053
I1
sS'oumi'
p4054
I16
sS'aobu'
p4055
I2
sS'owei'
p4056
I1
sS'yous'
p4057
I17
sS'oume'
p4058
I3
sS'aobe'
p4059
I1
sS'aoba'
p4060
I9
sS'uabu'
p4061
I1
sS'juzh'
p4062
I8
sS'aobi'
p4063
I1
sS'unda'
p4064
I9
sS'gaox'
p4065
I17
sS'yexu'
p4066
I1
sS'iebe'
p4067
I1
sS'oguo'
p4068
I9
sS'ogun'
p4069
I2
sS'yuex'
p4070
I1
sS'jing'
p4071
I113
sS'shux'
p4072
I4
sS'shuy'
p4073
I25
sS'ndui'
p4074
I2
sS'undu'
p4075
I1
sS'guya'
p4076
I1
sS'jili'
p4077
I4
sS'shua'
p4078
I20
sS'shun'
p4079
I1
sS'iebu'
p4080
I3
sS'gaog'
p4081
I1
sS'shuj'
p4082
I1
sS'shuk'
p4083
I3
sS'shui'
p4084
I41
sS'qule'
p4085
I6
sS'cais'
p4086
I1
sS'rjiu'
p4087
I1
sS'itou'
p4088
I4
sS'cail'
p4089
I1
sS'anle'
p4090
I22
sS'echa'
p4091
I8
sS'anla'
p4092
I9
sS'yong'
p4093
I40
sS'yinz'
p4094
I2
sS'echi'
p4095
I1
sS'yinw'
p4096
I21
sS'anli'
p4097
I7
sS'yinq'
p4098
I1
sS'echo'
p4099
I2
sS'anlu'
p4100
I2
sS'echu'
p4101
I5
sS'dieb'
p4102
I3
sS'duos'
p4103
I1
sS'ying'
p4104
I35
sS'hehe'
p4105
I2
sS'xumu'
p4106
I3
sS'ojiu'
p4107
I2
sS'huag'
p4108
I1
sS'uexi'
p4109
I45
sS'ojia'
p4110
I36
sS'ojic'
p4111
I5
sS'ojie'
p4112
I3
sS'huab'
p4113
I1
sS'ojin'
p4114
I4
sS'aoli'
p4115
I5
sS'zhiw'
p4116
I1
sS'nyao'
p4117
I1
sS'zhiq'
p4118
I1
sS'zhis'
p4119
I4
sS'zhiy'
p4120
I17
sS'zhix'
p4121
I12
sS'zhiz'
p4122
I11
sS'zhid'
p4123
I47
sS'zhif'
p4124
I1
sS'zhic'
p4125
I3
sS'zhib'
p4126
I5
sS'zhil'
p4127
I2
sS'ayis'
p4128
I1
sS'zhih'
p4129
I5
sS'zhij'
p4130
I5
sS'qila'
p4131
I23
sS'qile'
p4132
I1
sS'poji'
p4133
I2
sS'budo'
p4134
I1
sS'qili'
p4135
I4
sS'gebo'
p4136
I5
sS'uapu'
p4137
I2
sS'uapi'
p4138
I1
sS'izou'
p4139
I1
sS'qilu'
p4140
I3
sS'jinz'
p4141
I2
sS'gnia'
p4142
I12
sS'bing'
p4143
I32
sS'iche'
p4144
I8
sS'icha'
p4145
I37
sS'ichi'
p4146
I3
sS'ichu'
p4147
I16
sS'idad'
p4148
I1
sS'inru'
p4149
I1
sS'idai'
p4150
I13
sS'idao'
p4151
I61
sS'lile'
p4152
I2
sS'atia'
p4153
I16
sS'hefu'
p4154
I4
sS'eryi'
p4155
I1
sS'gden'
p4156
I5
sS'lili'
p4157
I8
sS'atin'
p4158
I4
sS'lilu'
p4159
I1
sS'aqil'
p4160
I1
sS'hefa'
p4161
I4
sS'aqia'
p4162
I1
sS'eman'
p4163
I2
sS'aqie'
p4164
I1
sS'kans'
p4165
I2
sS'sisi'
p4166
I1
sS'sish'
p4167
I4
sS'gepe'
p4168
I2
sS'ndia'
p4169
I5
sS'dubo'
p4170
I1
sS'fane'
p4171
I1
sS'uizi'
p4172
I6
sS'fach'
p4173
I6
sS'gesh'
p4174
I13
sS'nqun'
p4175
I1
sS'piqi'
p4176
I6
sS'e\xe2\x80\x9d'
p4177
I1
sS'nmia'
p4178
I12
sS'inda'
p4179
I2
sS'tuya'
p4180
I1
sS'uodo'
p4181
I3
sS'uefe'
p4182
I6
sS'deng'
p4183
I59
sS'ueka'
p4184
I3
sS'ngge'
p4185
I5
sS'aozi'
p4186
I3
sS'ngga'
p4187
I9
sS'gliu'
p4188
I1
sS'gepi'
p4189
I1
sS'nggu'
p4190
I31
sS'nage'
p4191
I5
sS'woto'
p4192
I2
sS'niez'
p4193
I1
sS'fann'
p4194
I1
sS'aiwa'
p4195
I4
sS'yuda'
p4196
I3
sS'hadi'
p4197
I1
sS'eqiz'
p4198
I1
sS'hada'
p4199
I1
sS'anfu'
p4200
I2
sS'eqis'
p4201
I1
sS'eqin'
p4202
I1
sS'eqie'
p4203
I1
sS'zizi'
p4204
I4
sS'eqia'
p4205
I3
sS'fanw'
p4206
I1
sS'daji'
p4207
I11
sS'heta'
p4208
I1
sS'hifu'
p4209
I1
sS'muto'
p4210
I9
sS'hifa'
p4211
I17
sS'ehai'
p4212
I13
sS'hife'
p4213
I1
sS'ingw'
p4214
I7
sS'ohui'
p4215
I7
sS'ishi'
p4216
I35
sS'gush'
p4217
I9
sS'gran'
p4218
I10
sS'uida'
p4219
I9
sS'uidi'
p4220
I1
sS'iech'
p4221
I1
sS'gqul'
p4222
I3
sS'jion'
p4223
I1
sS'mafa'
p4224
I2
sS'yeye'
p4225
I11
sS'gtia'
p4226
I2
sS'ghon'
p4227
I2
sS'miel'
p4228
I1
sS'yash'
p4229
I1
sS'teng'
p4230
I3
sS'biba'
p4231
I1
sS'qiey'
p4232
I2
sS'uohe'
p4233
I3
sS'yuji'
p4234
I1
sS'zoud'
p4235
I10
sS'zoub'
p4236
I1
sS'amen'
p4237
I66
sS'xifa'
p4238
I4
sS'zouj'
p4239
I1
sS'zouk'
p4240
I1
sS'aoqu'
p4241
I4
sS'uoha'
p4242
I1
sS'haju'
p4243
I2
sS'ende'
p4244
I1
sS'zous'
p4245
I1
sS'zouq'
p4246
I3
sS'zouz'
p4247
I2
sS'tuji'
p4248
I2
sS'rsuo'
p4249
I24
sS'nmed'
p4250
I4
sS'qiqu'
p4251
I1
sS'hita'
p4252
I3
sS'wuzh'
p4253
I1
sS'wuzi'
p4254
I45
sS'gebu'
p4255
I1
sS'iayi'
p4256
I1
sS'uaqi'
p4257
I1
sS'epen'
p4258
I2
sS'ehao'
p4259
I2
sS'banq'
p4260
I1
sS'geba'
p4261
I4
sS'icui'
p4262
I1
sS'gebi'
p4263
I9
sS'icun'
p4264
I1
sS'uich'
p4265
I2
sS'zeny'
p4266
I4
sS'qimi'
p4267
I1
sS'nhou'
p4268
I11
sS'igeg'
p4269
I1
sS'nhon'
p4270
I1
sS'ceng'
p4271
I15
sS'hehu'
p4272
I4
sS'bans'
p4273
I7
sS'chez'
p4274
I5
sS'qieb'
p4275
I1
sS'ewan'
p4276
I1
sS'unyi'
p4277
I1
sS'yuxu'
p4278
I1
sS'luoh'
p4279
I1
sS'adou'
p4280
I2
sS'hubi'
p4281
I6
sS'tuxi'
p4282
I1
sS'agai'
p4283
I4
sS'agan'
p4284
I1
sS'uaca'
p4285
I3
sS'iabi'
p4286
I1
sS'aoch'
p4287
I22
sS'hubu'
p4288
I1
sS'ngzu'
p4289
I23
sS'lush'
p4290
I9
sS'uiwu'
p4291
I2
sS'ghua'
p4292
I12
sS'kuku'
p4293
I1
sS'ongt'
p4294
I1
sS'ngzi'
p4295
I37
sS'ngzh'
p4296
I67
sS'ngzo'
p4297
I1
sS'uton'
p4298
I6
sS'incu'
p4299
I1
sS'geto'
p4300
I1
sS'uoer'
p4301
I23
sS'juan'
p4302
I3
sS'biye'
p4303
I5
sS'iemi'
p4304
I1
sS'inci'
p4305
I2
sS'utou'
p4306
I16
sS'iuqi'
p4307
I3
sS'anka'
p4308
I4
sS'dush'
p4309
I4
sS'anke'
p4310
I3
sS'ikes'
p4311
I1
sS'yida'
p4312
I5
sS'anko'
p4313
I4
sS'ecir'
p4314
I3
sS'uron'
p4315
I4
sS'anku'
p4316
I3
sS'ikec'
p4317
I2
sS'erji'
p4318
I1
sS'peiz'
p4319
I1
sS'ukua'
p4320
I1
sS'ueye'
p4321
I1
sS'ueyi'
p4322
I5
sS'phas'
p4323
I1
sS'setu'
p4324
I1
sS'ugua'
p4325
I8
sS'uguo'
p4326
I30
sS'hesh'
p4327
I14
sS'oyaq'
p4328
I1
sS'ngci'
p4329
I1
sS'aife'
p4330
I2
sS'daid'
p4331
I1
sS'abai'
p4332
I2
sS'aban'
p4333
I2
sS'daic'
p4334
I3
sS'daiz'
p4335
I10
sS'dait'
p4336
I1
sS'ozuo'
p4337
I1
sS'oyao'
p4338
I1
sS'oyan'
p4339
I2
sS'ijin'
p4340
I34
sS'enzi'
p4341
I1
sS'ngho'
p4342
I2
sS'ngha'
p4343
I2
sS'ejiq'
p4344
I1
sS'nghe'
p4345
I2
sS'ijig'
p4346
I1
sS'ijie'
p4347
I12
sS'nati'
p4348
I8
sS'otai'
p4349
I1
sS'gheg'
p4350
I1
sS'nghu'
p4351
I45
sS'ijiu'
p4352
I3
sS'ebus'
p4353
I1
sS'iuge'
p4354
I2
sS'inqi'
p4355
I9
sS'ebux'
p4356
I3
sS'utai'
p4357
I2
sS'fuji'
p4358
I3
sS'uyao'
p4359
I9
sS'uyan'
p4360
I2
sS'uowe'
p4361
I1
sS'iugu'
p4362
I1
sS'imei'
p4363
I3
sS'ebuh'
p4364
I1
sS'inqu'
p4365
I15
sS'imen'
p4366
I20
sS'erxi'
p4367
I1
sS'lika'
p4368
I7
sS'isua'
p4369
I2
sS'like'
p4370
I7
sS'eixi'
p4371
I3
sS'aheq'
p4372
I3
sS'shef'
p4373
I1
sS'mohu'
p4374
I2
sS'shed'
p4375
I1
sS'sheb'
p4376
I3
sS'haig'
p4377
I2
sS'owan'
p4378
I3
sS'shen'
p4379
I208
sS'iyed'
p4380
I2
sS'shel'
p4381
I3
sS'xiez'
p4382
I7
sS'sheh'
p4383
I6
sS'shei'
p4384
I2
sS'hush'
p4385
I11
sS'hais'
p4386
I13
sS'haip'
p4387
I3
sS'enko'
p4388
I1
sS'shes'
p4389
I1
sS'nlao'
p4390
I1
sS'haiz'
p4391
I35
sS'tuik'
p4392
I3
sS'xiem'
p4393
I1
sS'shez'
p4394
I1
sS'keum'
p4395
I1
sS'daga'
p4396
I4
sS'aita'
p4397
I1
sS'oubi'
p4398
I6
sS'ogei'
p4399
I1
sS'yuey'
p4400
I1
sS'ngle'
p4401
I39
sS'ngfe'
p4402
I9
sS'usan'
p4403
I1
sS'ngfa'
p4404
I9
sS'yues'
p4405
I4
sS'aolu'
p4406
I3
sS'ansu'
p4407
I4
sS'yueh'
p4408
I1
sS'nlai'
p4409
I17
sS'yuej'
p4410
I2
sS'yuem'
p4411
I1
sS'aito'
p4412
I1
sS'yuea'
p4413
I1
sS'omin'
p4414
I9
sS'edif'
p4415
I6
sS'iwai'
p4416
I3
sS'asho'
p4417
I1
sS'ashi'
p4418
I24
sS'ashe'
p4419
I10
sS'asha'
p4420
I12
sS'edia'
p4421
I2
sS'laol'
p4422
I1
sS'hier'
p4423
I6
sS'ouge'
p4424
I2
sS'rzhi'
p4425
I1
sS'ashu'
p4426
I11
sS'laon'
p4427
I19
sS'mofa'
p4428
I1
sS'laoh'
p4429
I1
sS'gtui'
p4430
I1
sS'\x80nji'
p4431
I1
sS'qies'
p4432
I1
sS'mihu'
p4433
I2
sS'eiho'
p4434
I4
sS'huat'
p4435
I5
sS'jina'
p4436
I14
sS'huas'
p4437
I2
sS'huap'
p4438
I3
sS'jinm'
p4439
I1
sS'jinl'
p4440
I3
sS'mozh'
p4441
I3
sS'jini'
p4442
I1
sS'jinh'
p4443
I2
sS'huax'
p4444
I7
sS'jinj'
p4445
I2
sS'jint'
p4446
I1
sS'huad'
p4447
I4
sS'lihu'
p4448
I3
sS'jinq'
p4449
I16
sS'huac'
p4450
I3
sS'jins'
p4451
I1
sS'jinr'
p4452
I1
sS'huan'
p4453
I148
sS'aole'
p4454
I34
sS'hual'
p4455
I3
sS'huaj'
p4456
I3
sS'aola'
p4457
I4
sS'huai'
p4458
I20
sS'gaiz'
p4459
I4
sS'glia'
p4460
I5
sS'npao'
p4461
I1
sS'npan'
p4462
I1
sS'kanb'
p4463
I10
sS'duan'
p4464
I30
sS'awan'
p4465
I2
sS'gail'
p4466
I1
sS'hiju'
p4467
I3
sS'yuku'
p4468
I1
sS'aore'
p4469
I2
sS'yapi'
p4470
I14
sS'itia'
p4471
I22
sS'mizh'
p4472
I1
sS'baoj'
p4473
I2
sS'baok'
p4474
I1
sS'baoh'
p4475
I1
sS'ndon'
p4476
I28
sS'baol'
p4477
I2
sS'baom'
p4478
I10
sS'baoc'
p4479
I13
sS'anji'
p4480
I67
sS'unzh'
p4481
I1
sS'baof'
p4482
I9
sS'yilu'
p4483
I6
sS'baoz'
p4484
I3
sS'baox'
p4485
I1
sS'yili'
p4486
I5
sS'ezho'
p4487
I9
sS'anju'
p4488
I12
sS'chuf'
p4489
I1
sS'biya'
p4490
I1
sS'mash'
p4491
I4
sS'ukai'
p4492
I1
sS'ndou'
p4493
I3
sS'chuc'
p4494
I1
sS'adai'
p4495
I3
sS'gmen'
p4496
I8
sS'bume'
p4497
I1
sS'book'
p4498
I13
sS'buqi'
p4499
I17
sS'chum'
p4500
I1
sS'aopa'
p4501
I2
sS'zhou'
p4502
I12
sS'gecu'
p4503
I2
sS'huay'
p4504
I1
sS'jund'
p4505
I1
sS'jung'
p4506
I1
sS'junf'
p4507
I6
sS'iwan'
p4508
I11
sS'geci'
p4509
I3
sS'gech'
p4510
I8
sS'junr'
p4511
I1
sS'zhon'
p4512
I89
sS'ezha'
p4513
I1
sS'qunq'
p4514
I1
sS'ezhe'
p4515
I5
sS'yiyu'
p4516
I12
sS'ilus'
p4517
I2
sS'kais'
p4518
I11
sS'rule'
p4519
I1
sS'kail'
p4520
I13
sS'ezhu'
p4521
I8
sS'oers'
p4522
I23
sS'nron'
p4523
I1
sS'kaic'
p4524
I1
sS'yeli'
p4525
I3
stRp4526
a.