(lp1
ccollections
Counter
p2
((dp3
S'a'
I1555
sS'c'
I1331
sS'b'
I432
sS'e'
I1019
sS'd'
I505
sS'g'
I1125
sS'f'
I354
sS'i'
I1670
sS'h'
I932
sS'k'
I258
sS'j'
I477
sS'm'
I815
sS'l'
I520
sS'o'
I1309
sS'n'
I2141
sS'q'
I265
sS'p'
I371
sS's'
I603
sS'r'
I226
sS'u'
I1069
sS't'
I428
sS'w'
I427
sS'v'
I127
sS'y'
I684
sS'x'
I424
sS'z'
I447
stRp4
ag2
((dp5
S'gw'
p6
I22
sS'gv'
p7
I7
sS'gu'
p8
I79
sS'gt'
p9
I20
sS'gs'
p10
I83
sS'gr'
p11
I20
sS'gq'
p12
I30
sS'gp'
p13
I19
sS'gz'
p14
I43
sS'gy'
p15
I84
sS'gx'
p16
I45
sS'gg'
p17
I33
sS'gf'
p18
I29
sS'ge'
p19
I29
sS'gd'
p20
I33
sS'gc'
p21
I154
sS'gb'
p22
I30
sS'ga'
p23
I23
sS'go'
p24
I56
sS'gn'
p25
I10
sS'gm'
p26
I16
sS'gl'
p27
I81
sS'gk'
p28
I50
sS'gj'
p29
I79
sS'gi'
p30
I11
sS'gh'
p31
I35
sS'tz'
p32
I5
sS'tx'
p33
I11
sS'ty'
p34
I27
sS'tv'
p35
I5
sS'tw'
p36
I20
sS'tt'
p37
I6
sS'tu'
p38
I27
sS'tr'
p39
I1
sS'ts'
p40
I12
sS'tp'
p41
I16
sS'tq'
p42
I5
sS'tn'
p43
I15
sS'to'
p44
I38
sS'tl'
p45
I4
sS'tm'
p46
I24
sS'tj'
p47
I10
sS'tk'
p48
I23
sS'th'
p49
I1
sS'ti'
p50
I22
sS'tf'
p51
I13
sS'tg'
p52
I1
sS'td'
p53
I31
sS'te'
p54
I8
sS'tb'
p55
I13
sS'tc'
p56
I16
sS'ta'
p57
I48
sS'zl'
p58
I2
sS'zm'
p59
I7
sS'zn'
p60
I10
sS'zo'
p61
I10
sS'zh'
p62
I195
sS'zi'
p63
I11
sS'zj'
p64
I9
sS'zk'
p65
I1
sS'zd'
p66
I20
sS'ze'
p67
I15
sS'zf'
p68
I16
sS'zg'
p69
I1
sS'za'
p70
I11
sS'zb'
p71
I17
sS'zc'
p72
I23
sS'zx'
p73
I15
sS'zy'
p74
I5
sS'zz'
p75
I5
sS'zt'
p76
I2
sS'zu'
p77
I18
sS'zv'
p78
I1
sS'zw'
p79
I11
sS'zp'
p80
I3
sS'zq'
p81
I3
sS'zs'
p82
I23
sS'ix'
p83
I28
sS'iz'
p84
I51
sS'iq'
p85
I29
sS'vi'
p86
I41
sS'vj'
p87
I3
sS'vk'
p88
I1
sS'vl'
p89
I3
sS'vm'
p90
I1
sS'vn'
p91
I1
sS'me'
p92
I53
sS'md'
p93
I2
sS'mg'
p94
I3
sS'mf'
p95
I11
sS'ma'
p96
I44
sS'mc'
p97
I44
sS'mb'
p98
I4
sS'mm'
p99
I2
sS'ml'
p100
I2
sS'mo'
p101
I4
sS'mi'
p102
I72
sS'mh'
p103
I4
sS'mk'
p104
I3
sS'mj'
p105
I4
sS'mu'
p106
I4
sS'mt'
p107
I7
sS'mw'
p108
I9
sS'mv'
p109
I1
sS'mq'
p110
I2
sS'mp'
p111
I14
sS'ms'
p112
I10
sS'mr'
p113
I1
sS'vt'
p114
I1
sS'my'
p115
I15
sS'mx'
p116
I1
sS'mz'
p117
I2
sS'io'
p118
I15
sS'vw'
p119
I3
sS'vx'
p120
I9
sS'ic'
p121
I51
sS'fp'
p122
I4
sS'fq'
p123
I6
sS'fr'
p124
I1
sS'fs'
p125
I18
sS'ft'
p126
I13
sS'fu'
p127
I80
sS'fv'
p128
I3
sS'fw'
p129
I3
sS'fx'
p130
I3
sS'fy'
p131
I24
sS'fz'
p132
I11
sS'fa'
p133
I44
sS'fb'
p134
I20
sS'fc'
p135
I9
sS'fd'
p136
I18
sS'fe'
p137
I27
sS'ff'
p138
I6
sS'fh'
p139
I19
sS'fi'
p140
I6
sS'fj'
p141
I1
sS'fk'
p142
I15
sS'fm'
p143
I18
sS'fo'
p144
I5
sS'sz'
p145
I15
sS'sy'
p146
I9
sS'sx'
p147
I17
sS'ss'
p148
I34
sS'sr'
p149
I3
sS'sq'
p150
I1
sS'sp'
p151
I7
sS'sw'
p152
I23
sS'sv'
p153
I2
sS'su'
p154
I19
sS'st'
p155
I34
sS'sk'
p156
I3
sS'sj'
p157
I1
sS'si'
p158
I35
sS'sh'
p159
I185
sS'so'
p160
I20
sS'sn'
p161
I6
sS'sm'
p162
I7
sS'sl'
p163
I3
sS'sc'
p164
I96
sS'sb'
p165
I1
sS'sa'
p166
I19
sS'sg'
p167
I2
sS'sf'
p168
I7
sS'se'
p169
I5
sS'sd'
p170
I49
sS'lf'
p171
I7
sS'lg'
p172
I1
sS'ld'
p173
I2
sS'le'
p174
I149
sS'lb'
p175
I1
sS'lc'
p176
I56
sS'la'
p177
I32
sS'ln'
p178
I1
sS'lo'
p179
I52
sS'll'
p180
I4
sS'lm'
p181
I8
sS'lj'
p182
I11
sS'lk'
p183
I1
sS'lh'
p184
I3
sS'li'
p185
I120
sS'lv'
p186
I11
sS'lw'
p187
I3
sS'lt'
p188
I11
sS'lu'
p189
I25
sS'ls'
p190
I15
sS'lq'
p191
I1
sS'lz'
p192
I1
sS'lx'
p193
I2
sS'ly'
p194
I3
sS'yi'
p195
I80
sS'yh'
p196
I9
sS'yk'
p197
I2
sS'yj'
p198
I12
sS'ym'
p199
I11
sS'yl'
p200
I40
sS'yo'
p201
I69
sS'yn'
p202
I1
sS'ya'
p203
I102
sS'yc'
p204
I46
sS'yb'
p205
I6
sS'ye'
p206
I21
sS'yd'
p207
I1
sS'yg'
p208
I11
sS'yf'
p209
I27
sS'yy'
p210
I9
sS'yx'
p211
I8
sS'yz'
p212
I3
sS'yq'
p213
I14
sS'ys'
p214
I5
sS'yr'
p215
I2
sS'yu'
p216
I181
sS'yt'
p217
I8
sS'yw'
p218
I13
sS'yv'
p219
I3
sS'em'
p220
I6
sS'el'
p221
I20
sS'eo'
p222
I1
sS'en'
p223
I313
sS'ei'
p224
I67
sS'eh'
p225
I24
sS'ek'
p226
I5
sS'ej'
p227
I24
sS'ee'
p228
I14
sS'ed'
p229
I58
sS'eg'
p230
I30
sS'ef'
p231
I6
sS'ea'
p232
I6
sS'ec'
p233
I168
sS'eb'
p234
I18
sS'ey'
p235
I29
sS'ex'
p236
I28
sS'ez'
p237
I23
sS'et'
p238
I49
sS'ew'
p239
I29
sS'ev'
p240
I4
sS'eq'
p241
I10
sS'ep'
p242
I11
sS'es'
p243
I37
sS'er'
p244
I38
sS'rt'
p245
I35
sS'ru'
p246
I8
sS'rv'
p247
I1
sS'rw'
p248
I1
sS'rp'
p249
I6
sS'rq'
p250
I3
sS'rr'
p251
I5
sS'rs'
p252
I23
sS'rx'
p253
I1
sS'ry'
p254
I4
sS'rd'
p255
I4
sS're'
p256
I34
sS'rf'
p257
I3
sS'rg'
p258
I26
sS'ra'
p259
I3
sS'rb'
p260
I6
sS'rc'
p261
I18
sS'rl'
p262
I3
sS'rm'
p263
I1
sS'ro'
p264
I17
sS'rh'
p265
I12
sS'ri'
p266
I10
sS'rj'
p267
I1
sS'rk'
p268
I1
sS'xj'
p269
I2
sS'xk'
p270
I11
sS'xh'
p271
I4
sS'xi'
p272
I215
sS'xn'
p273
I3
sS'xl'
p274
I1
sS'xm'
p275
I2
sS'xb'
p276
I5
sS'xc'
p277
I46
sS'xa'
p278
I2
sS'xf'
p279
I1
sS'xg'
p280
I4
sS'xd'
p281
I1
sS'xe'
p282
I2
sS'xz'
p283
I12
sS'xx'
p284
I3
sS'xy'
p285
I15
sS'xs'
p286
I19
sS'xp'
p287
I2
sS'xq'
p288
I1
sS'xv'
p289
I2
sS'xw'
p290
I4
sS'xt'
p291
I2
sS'xu'
p292
I65
sS'kc'
p293
I21
sS'kb'
p294
I1
sS'ka'
p295
I88
sS'kg'
p296
I4
sS'kf'
p297
I4
sS'ke'
p298
I21
sS'kd'
p299
I10
sS'kk'
p300
I1
sS'kj'
p301
I3
sS'ki'
p302
I5
sS'kh'
p303
I3
sS'ko'
p304
I2
sS'kn'
p305
I1
sS'km'
p306
I1
sS'ks'
p307
I4
sS'kr'
p308
I10
sS'kq'
p309
I4
sS'kp'
p310
I2
sS'kw'
p311
I1
sS'kv'
p312
I2
sS'ku'
p313
I18
sS'kt'
p314
I32
sS'kz'
p315
I3
sS'ky'
p316
I11
sS'dn'
p317
I2
sS'do'
p318
I13
sS'dl'
p319
I9
sS'dm'
p320
I4
sS'dj'
p321
I22
sS'dk'
p322
I3
sS'dh'
p323
I10
sS'di'
p324
I34
sS'df'
p325
I12
sS'dg'
p326
I11
sS'dd'
p327
I8
sS'de'
p328
I55
sS'db'
p329
I8
sS'dc'
p330
I35
sS'da'
p331
I95
sS'dz'
p332
I23
sS'dx'
p333
I7
sS'dy'
p334
I13
sS'dv'
p335
I7
sS'dw'
p336
I15
sS'dt'
p337
I4
sS'du'
p338
I87
sS'ds'
p339
I5
sS'dp'
p340
I7
sS'dq'
p341
I16
sS'qq'
p342
I11
sS'qp'
p343
I7
sS'qs'
p344
I3
sS'qr'
p345
I7
sS'qu'
p346
I15
sS'qt'
p347
I5
sS'qw'
p348
I8
sS'qy'
p349
I3
sS'qx'
p350
I12
sS'qz'
p351
I2
sS'qa'
p352
I2
sS'qc'
p353
I4
sS'qb'
p354
I4
sS'qe'
p355
I14
sS'qd'
p356
I7
sS'qg'
p357
I2
sS'qf'
p358
I8
sS'qi'
p359
I135
sS'qh'
p360
I1
sS'qk'
p361
I1
sS'qj'
p362
I5
sS'qm'
p363
I6
sS'ql'
p364
I2
sS'qn'
p365
I1
sS'wc'
p366
I41
sS'jz'
p367
I21
sS'jt'
p368
I2
sS'wn'
p369
I4
sS'wg'
p370
I1
sS'we'
p371
I37
sS'wl'
p372
I7
sS'jx'
p373
I3
sS'jy'
p374
I11
sS'wa'
p375
I147
sS'wo'
p376
I12
sS'ju'
p377
I3
sS'wm'
p378
I12
sS'jw'
p379
I2
sS'wk'
p380
I12
sS'wj'
p381
I19
sS'jr'
p382
I2
sS'wh'
p383
I11
sS'jl'
p384
I7
sS'jm'
p385
I3
sS'wu'
p386
I10
sS'jo'
p387
I13
sS'ws'
p388
I6
sS'wi'
p389
I10
sS'wq'
p390
I1
sS'jk'
p391
I1
sS'jd'
p392
I7
sS'jf'
p393
I4
sS'jg'
p394
I11
sS'ja'
p395
I2
sS'wy'
p396
I8
sS'wx'
p397
I8
sS'ww'
p398
I49
sS'wt'
p399
I2
sS'jh'
p400
I13
sS'ji'
p401
I286
sS'ck'
p402
I3
sS'cj'
p403
I4
sS'ci'
p404
I8
sS'ch'
p405
I199
sS'co'
p406
I544
sS'jj'
p407
I7
sS'cl'
p408
I3
sS'cc'
p409
I59
sS'cb'
p410
I10
sS'ca'
p411
I57
sS'wp'
p412
I3
sS'cg'
p413
I2
sS'cf'
p414
I3
sS'ce'
p415
I23
sS'cd'
p416
I1
sS'cz'
p417
I14
sS'cy'
p418
I8
sS'cx'
p419
I2
sS'cs'
p420
I11
sS'cr'
p421
I20
sS'cq'
p422
I3
sS'cp'
p423
I9
sS'cw'
p424
I4
sS'cu'
p425
I8
sS'ct'
p426
I3
sS'pr'
p427
I13
sS'ps'
p428
I3
sS'pp'
p429
I5
sS'pq'
p430
I24
sS'pv'
p431
I4
sS'pw'
p432
I25
sS'pt'
p433
I9
sS'pu'
p434
I15
sS'pz'
p435
I11
sS'px'
p436
I3
sS'py'
p437
I29
sS'wz'
p438
I11
sS'pb'
p439
I13
sS'pc'
p440
I29
sS'pa'
p441
I47
sS'pf'
p442
I14
sS'jb'
p443
I3
sS'pd'
p444
I4
sS'pe'
p445
I2
sS'pj'
p446
I11
sS'ph'
p447
I11
sS'pi'
p448
I59
sS'po'
p449
I22
sS'pl'
p450
I15
sS'pm'
p451
I1
sS'iy'
p452
I150
sS'va'
p453
I2
sS'vb'
p454
I6
sS'vc'
p455
I3
sS'vd'
p456
I5
sS've'
p457
I5
sS'vf'
p458
I4
sS'vg'
p459
I2
sS'vh'
p460
I4
sS'ip'
p461
I94
sS'is'
p462
I30
sS'ir'
p463
I8
sS'iu'
p464
I74
sS'it'
p465
I26
sS'iw'
p466
I25
sS'iv'
p467
I10
sS'ii'
p468
I2
sS'ih'
p469
I34
sS'ik'
p470
I49
sS'ij'
p471
I66
sS'im'
p472
I11
sS'vu'
p473
I5
sS'vv'
p474
I4
sS'in'
p475
I398
sS'ia'
p476
I273
sS'vy'
p477
I3
sS'vz'
p478
I1
sS'ib'
p479
I46
sS'ie'
p480
I49
sS'id'
p481
I48
sS'ig'
p482
I28
sS'if'
p483
I31
sS'il'
p484
I44
sS'cn'
p485
I333
sS'jp'
p486
I34
sS'jq'
p487
I1
sS'jc'
p488
I37
sS'vs'
p489
I15
sS'js'
p490
I4
sS'bd'
p491
I14
sS'be'
p492
I27
sS'bf'
p493
I17
sS'bg'
p494
I4
sS'ba'
p495
I110
sS'bb'
p496
I23
sS'bc'
p497
I22
sS'bl'
p498
I6
sS'bm'
p499
I4
sS'bn'
p500
I1
sS'bo'
p501
I60
sS'bh'
p502
I12
sS'bi'
p503
I39
sS'bj'
p504
I17
sS'bk'
p505
I1
sS'bt'
p506
I11
sS'bu'
p507
I12
sS'bv'
p508
I3
sS'bw'
p509
I2
sS'bp'
p510
I4
sS'bq'
p511
I4
sS'br'
p512
I1
sS'bs'
p513
I13
sS'bx'
p514
I11
sS'by'
p515
I10
sS'bz'
p516
I4
sS'oo'
p517
I18
sS'on'
p518
I168
sS'om'
p519
I577
sS'ol'
p520
I25
sS'ok'
p521
I13
sS'oj'
p522
I45
sS'oi'
p523
I6
sS'oh'
p524
I7
sS'og'
p525
I15
sS'of'
p526
I11
sS'oe'
p527
I2
sS'od'
p528
I21
sS'oc'
p529
I42
sS'ob'
p530
I18
sS'oa'
p531
I4
sS'oz'
p532
I15
sS'oy'
p533
I25
sS'ox'
p534
I12
sS'ow'
p535
I21
sS'ov'
p536
I12
sS'ou'
p537
I132
sS'ot'
p538
I29
sS'os'
p539
I23
sS'or'
p540
I34
sS'oq'
p541
I10
sS'op'
p542
I18
sS'pg'
p543
I2
sS'hz'
p544
I9
sS'hx'
p545
I10
sS'hy'
p546
I7
sS'hs'
p547
I19
sS'hp'
p548
I3
sS'hq'
p549
I2
sS'hv'
p550
I12
sS'hw'
p551
I7
sS'ht'
p552
I4
sS'hu'
p553
I143
sS'hj'
p554
I4
sS'hk'
p555
I8
sS'hh'
p556
I3
sS'hi'
p557
I67
sS'hn'
p558
I20
sS'ho'
p559
I104
sS'hl'
p560
I1
sS'hb'
p561
I11
sS'hc'
p562
I54
sS'ha'
p563
I140
sS'hf'
p564
I1
sS'hg'
p565
I16
sS'he'
p566
I287
sS'uy'
p567
I35
sS'ux'
p568
I49
sS'uz'
p569
I81
sS'uu'
p570
I3
sS'ut'
p571
I21
sS'uw'
p572
I18
sS'uv'
p573
I7
sS'uq'
p574
I26
sS'up'
p575
I30
sS'us'
p576
I73
sS'ur'
p577
I14
sS'um'
p578
I13
sS'ul'
p579
I116
sS'uo'
p580
I61
sS'un'
p581
I75
sS'ui'
p582
I26
sS'uh'
p583
I31
sS'uk'
p584
I18
sS'uj'
p585
I27
sS'ue'
p586
I10
sS'ud'
p587
I25
sS'ug'
p588
I7
sS'uf'
p589
I24
sS'ua'
p590
I131
sS'uc'
p591
I113
sS'ub'
p592
I35
sS'aa'
p593
I5
sS'ac'
p594
I8
sS'ab'
p595
I9
sS'ae'
p596
I18
sS'ad'
p597
I30
sS'ag'
p598
I11
sS'af'
p599
I21
sS'ai'
p600
I279
sS'ah'
p601
I31
sS'ak'
p602
I11
sS'aj'
p603
I9
sS'am'
p604
I25
sS'al'
p605
I37
sS'ao'
p606
I144
sS'an'
p607
I698
sS'aq'
p608
I2
sS'ap'
p609
I31
sS'as'
p610
I32
sS'ar'
p611
I20
sS'au'
p612
I21
sS'at'
p613
I23
sS'aw'
p614
I10
sS'av'
p615
I4
sS'ay'
p616
I40
sS'ax'
p617
I10
sS'az'
p618
I26
sS'nh'
p619
I24
sS'ni'
p620
I12
sS'nj'
p621
I49
sS'nk'
p622
I12
sS'nl'
p623
I28
sS'nm'
p624
I33
sS'nn'
p625
I30
sS'no'
p626
I11
sS'na'
p627
I62
sS'nb'
p628
I44
sS'nc'
p629
I102
sS'nd'
p630
I58
sS'ne'
p631
I72
sS'nf'
p632
I25
sS'ng'
p633
I861
sS'nx'
p634
I68
sS'ny'
p635
I81
sS'nz'
p636
I42
sS'np'
p637
I12
sS'nq'
p638
I28
sS'nr'
p639
I10
sS'ns'
p640
I55
sS'nt'
p641
I34
sS'nu'
p642
I4
sS'nv'
p643
I11
sS'nw'
p644
I29
sS'vp'
p645
I3
sS'vq'
p646
I2
stRp647
ag2
((dp648
S'nww'
p649
I6
sS'rew'
p650
I1
sS'nwe'
p651
I4
sS'zif'
p652
I2
sS'alm'
p653
I1
sS'nwa'
p654
I18
sS'nwl'
p655
I1
sS'mww'
p656
I2
sS'auf'
p657
I1
sS'mwx'
p658
I1
sS'lvl'
p659
I2
sS'mwa'
p660
I3
sS'nru'
p661
I1
sS'xtl'
p662
I1
sS'mwo'
p663
I2
sS'mwl'
p664
I1
sS'wjo'
p665
I10
sS'wjm'
p666
I1
sS'fjm'
p667
I1
sS'wjg'
p668
I2
sS'wjd'
p669
I4
sS'wja'
p670
I1
sS'wjt'
p671
I1
sS'upo'
p672
I18
sS'zdy'
p673
I10
sS'upi'
p674
I2
sS'upe'
p675
I1
sS'fha'
p676
I1
sS'upa'
p677
I3
sS'zdm'
p678
I1
sS'fhx'
p679
I6
sS'fhz'
p680
I1
sS'zde'
p681
I1
sS'fht'
p682
I1
sS'upu'
p683
I6
sS'iyo'
p684
I28
sS'zdc'
p685
I7
sS'fuz'
p686
I11
sS'mll'
p687
I1
sS'ptv'
p688
I1
sS'nen'
p689
I3
sS'neo'
p690
I1
sS'kuz'
p691
I1
sS'nei'
p692
I1
sS'neg'
p693
I10
sS'ned'
p694
I10
sS'kus'
p695
I1
sS'nec'
p696
I2
sS'nea'
p697
I1
sS'ain'
p698
I2
sS'kuj'
p699
I6
sS'pin'
p700
I40
sS'new'
p701
I5
sS'net'
p702
I34
sS'ner'
p703
I3
sS'rcc'
p704
I1
sS'kua'
p705
I10
sS'aih'
p706
I12
sS'mef'
p707
I1
sS'slj'
p708
I1
sS'mec'
p709
I10
sS'meb'
p710
I1
sS'mel'
p711
I1
sS'men'
p712
I23
sS'mei'
p713
I8
sS'meh'
p714
I3
sS'xfy'
p715
I1
sS'aid'
p716
I14
sS'mey'
p717
I5
sS'gli'
p718
I28
sS'aky'
p719
I1
sS'gni'
p720
I1
sS'glm'
p721
I2
sS'glo'
p722
I37
sS'xtp'
p723
I1
sS'gle'
p724
I1
sS'glf'
p725
I2
sS'aki'
p726
I1
sS'ako'
p727
I1
sS'akn'
p728
I1
sS'sjl'
p729
I1
sS'akc'
p730
I1
sS'glq'
p731
I1
sS'glu'
p732
I8
sS'ake'
p733
I2
sS'wmp'
p734
I10
sS'qzs'
p735
I1
sS'txc'
p736
I10
sS'qzn'
p737
I1
sS'txu'
p738
I1
sS'bra'
p739
I1
sS'ore'
p740
I2
sS'lws'
p741
I1
sS'aus'
p742
I20
sS'orc'
p743
I1
sS'lwk'
p744
I1
sS'zmy'
p745
I3
sS'dnq'
p746
I1
sS'lwa'
p747
I1
sS'nka'
p748
I5
sS'kgs'
p749
I1
sS'nke'
p750
I1
sS'nkf'
p751
I1
sS'nkg'
p752
I1
sS'jms'
p753
I1
sS'vpd'
p754
I1
sS'jmh'
p755
I1
sS'nks'
p756
I1
sS'qdp'
p757
I6
sS'qdq'
p758
I1
sS'nkz'
p759
I1
sS'vpj'
p760
I1
sS'ert'
p761
I11
sS'eru'
p762
I1
sS'ers'
p763
I1
sS'ery'
p764
I2
sS'xhs'
p765
I1
sS'ere'
p766
I1
sS'xhp'
p767
I3
sS'erb'
p768
I2
sS'erc'
p769
I11
sS'erl'
p770
I1
sS'tnl'
p771
I3
sS'ero'
p772
I2
sS'erh'
p773
I1
sS'eri'
p774
I3
sS'uay'
p775
I7
sS'uax'
p776
I1
sS'czx'
p777
I3
sS'uaz'
p778
I1
sS'uaq'
p779
I1
sS'uap'
p780
I1
sS'uas'
p781
I1
sS'uar'
p782
I4
sS'uai'
p783
I4
sS'ygv'
p784
I1
sS'czh'
p785
I10
sS'fay'
p786
I5
sS'ygs'
p787
I10
sS'uan'
p788
I100
sS'uaa'
p789
I1
sS'uac'
p790
I1
sS'uae'
p791
I4
sS'uad'
p792
I1
sS'uag'
p793
I1
sS'iul'
p794
I2
sS'ena'
p795
I15
sS'enb'
p796
I10
sS'enc'
p797
I35
sS'end'
p798
I11
sS'ene'
p799
I2
sS'eng'
p800
I161
sS'enh'
p801
I4
sS'eni'
p802
I1
sS'enj'
p803
I5
sS'hom'
p804
I11
sS'hoj'
p805
I2
sS'enm'
p806
I19
sS'enn'
p807
I2
sS'eno'
p808
I1
sS'enp'
p809
I1
sS'how'
p810
I1
sS'enr'
p811
I4
sS'hou'
p812
I41
sS'ent'
p813
I5
sS'enu'
p814
I3
sS'env'
p815
I2
sS'enw'
p816
I1
sS'enx'
p817
I7
sS'eny'
p818
I11
sS'enz'
p819
I3
sS'iuc'
p820
I8
sS'ovs'
p821
I2
sS'lan'
p822
I10
sS'lao'
p823
I7
sS'ovv'
p824
I1
sS'lai'
p825
I2
sS'ovu'
p826
I1
sS'ovx'
p827
I5
sS'jwo'
p828
I1
sS'ovb'
p829
I1
sS'lay'
p830
I12
sS'ove'
p831
I2
sS'ziw'
p832
I1
sS'mpi'
p833
I1
sS'las'
p834
I1
sS'faj'
p835
I2
sS'yqi'
p836
I6
sS'uwj'
p837
I3
sS'yqg'
p838
I2
sS'yqa'
p839
I1
sS'yqx'
p840
I1
sS'vfy'
p841
I1
sS'fan'
p842
I18
sS'vfu'
p843
I2
sS'vfs'
p844
I1
sS'wus'
p845
I2
sS'wuw'
p846
I2
sS'wuy'
p847
I1
sS'wux'
p848
I1
sS'zen'
p849
I9
sS'zel'
p850
I2
sS'wuc'
p851
I2
sS'zes'
p852
I2
sS'zet'
p853
I1
sS'wuj'
p854
I1
sS'wun'
p855
I1
sS'ima'
p856
I2
sS'clm'
p857
I2
sS'uow'
p858
I1
sS'uov'
p859
I1
sS'img'
p860
I1
sS'imi'
p861
I3
sS'uoz'
p862
I3
sS'imk'
p863
I1
sS'uox'
p864
I1
sS'uoc'
p865
I10
sS'uob'
p866
I3
sS'uog'
p867
I2
sS'uod'
p868
I3
sS'uoj'
p869
I29
sS'uoh'
p870
I2
sS'fin'
p871
I6
sS'uon'
p872
I1
sS'pji'
p873
I1
sS'pjh'
p874
I10
sS'mxu'
p875
I1
sS'hyb'
p876
I3
sS'zwc'
p877
I10
sS'zwg'
p878
I1
sS'hqm'
p879
I2
sS'qji'
p880
I3
sS'xgb'
p881
I2
sS'kqi'
p882
I2
sS'mdy'
p883
I1
sS'xgu'
p884
I1
sS'xgs'
p885
I1
sS'mdt'
p886
I1
sS'vvz'
p887
I1
sS'ajz'
p888
I2
sS'gon'
p889
I19
sS'goj'
p890
I1
sS'ajr'
p891
I1
sS'sms'
p892
I5
sS'dsp'
p893
I1
sS'gob'
p894
I1
sS'aji'
p895
I5
sS'smi'
p896
I1
sS'gou'
p897
I5
sS'dsd'
p898
I1
sS'gov'
p899
I5
sS'ajd'
p900
I1
sS'dsc'
p901
I1
sS'gor'
p902
I21
sS'yid'
p903
I1
sS'ntq'
p904
I1
sS'ntu'
p905
I5
sS'nti'
p906
I4
sS'ian'
p907
I160
sS'ntl'
p908
I1
sS'nto'
p909
I2
sS'zdd'
p910
I1
sS'nta'
p911
I18
sS'nte'
p912
I3
sS'atf'
p913
I1
sS'xuw'
p914
I1
sS'xuq'
p915
I1
sS'xur'
p916
I1
sS'ato'
p917
I1
sS'fmy'
p918
I8
sS'xux'
p919
I1
sS'atk'
p920
I18
sS'xuz'
p921
I45
sS'ist'
p922
I3
sS'isk'
p923
I1
sS'xue'
p924
I1
sS'isi'
p925
I6
sS'ish'
p926
I20
sS'xua'
p927
I7
sS'atp'
p928
I1
sS'xul'
p929
I1
sS'mvi'
p930
I1
sS'xun'
p931
I6
sS'iag'
p932
I4
sS'nhe'
p933
I4
sS'iaf'
p934
I1
sS'nha'
p935
I1
sS'kfs'
p936
I1
sS'nhc'
p937
I1
sS'nho'
p938
I1
sS'vqq'
p939
I1
sS'jjs'
p940
I1
sS'qkf'
p941
I1
sS'nhu'
p942
I11
sS'nht'
p943
I2
sS'kfc'
p944
I2
sS'jjh'
p945
I2
sS'vqb'
p946
I1
sS'jjc'
p947
I2
sS'xia'
p948
I63
sS'xib'
p949
I3
sS'xic'
p950
I1
sS'xid'
p951
I4
sS'xie'
p952
I14
sS'xif'
p953
I12
sS'xig'
p954
I1
sS'xih'
p955
I2
sS'xii'
p956
I1
sS'xik'
p957
I6
sS'xil'
p958
I3
sS'xin'
p959
I85
sS'tou'
p960
I16
sS'xip'
p961
I1
sS'xis'
p962
I1
sS'xit'
p963
I2
sS'too'
p964
I14
sS'tom'
p965
I1
sS'xix'
p966
I1
sS'xiy'
p967
I11
sS'xiz'
p968
I2
sS'iax'
p969
I1
sS'gyf'
p970
I1
sS'gye'
p971
I2
sS'gya'
p972
I15
sS'gyo'
p973
I11
sS'gyn'
p974
I1
sS'gyl'
p975
I1
sS'gyi'
p976
I16
sS'gyw'
p977
I10
sS'iau'
p978
I20
sS'gyu'
p979
I23
sS'qmw'
p980
I1
sS'gyq'
p981
I1
sS'vyv'
p982
I1
sS'iaw'
p983
I5
sS'gyy'
p984
I2
sS'gyx'
p985
I1
sS'nzu'
p986
I5
sS'ktt'
p987
I1
sS'nzz'
p988
I1
sS'tez'
p989
I2
sS'iap'
p990
I1
sS'nzc'
p991
I2
sS'pyx'
p992
I1
sS'kti'
p993
I1
sS'nze'
p994
I1
sS'nzd'
p995
I1
sS'ktd'
p996
I20
sS'qmm'
p997
I1
sS'ktf'
p998
I10
sS'nzh'
p999
I14
sS'nzo'
p1000
I3
sS'thu'
p1001
I1
sS'oqu'
p1002
I1
sS'rab'
p1003
I1
sS'oqq'
p1004
I2
sS'ran'
p1005
I1
sS'rak'
p1006
I1
sS'oqx'
p1007
I2
sS'lbc'
p1008
I1
sS'ter'
p1009
I2
sS'oqi'
p1010
I5
sS'jxu'
p1011
I1
sS'udu'
p1012
I8
sS'vga'
p1013
I1
sS'ogu'
p1014
I3
sS'jxc'
p1015
I2
sS'qmg'
p1016
I1
sS'vyf'
p1017
I1
sS'cyx'
p1018
I1
sS'tyh'
p1019
I3
sS'bsy'
p1020
I1
sS'qyz'
p1021
I1
sS'bst'
p1022
I1
sS'bss'
p1023
I1
sS'qyl'
p1024
I1
sS'bsn'
p1025
I1
sS'bso'
p1026
I1
sS'bsh'
p1027
I1
sS'tyy'
p1028
I4
sS'qyj'
p1029
I1
sS'tyt'
p1030
I2
sS'tyu'
p1031
I10
sS'nek'
p1032
I1
sS'don'
p1033
I6
sS'doo'
p1034
I1
sS'dog'
p1035
I2
sS'sun'
p1036
I11
sS'dov'
p1037
I1
sS'dou'
p1038
I3
sS'dst'
p1039
I1
sS'oge'
p1040
I2
sS'och'
p1041
I2
sS'lxn'
p1042
I1
sS'oco'
p1043
I10
sS'ocn'
p1044
I8
sS'oca'
p1045
I20
sS'ztf'
p1046
I1
sS'ztb'
p1047
I1
sS'ocx'
p1048
I1
sS'ocz'
p1049
I1
sS'wzc'
p1050
I10
sS'qtu'
p1051
I1
sS'yfa'
p1052
I6
sS'yfm'
p1053
I1
sS'yfh'
p1054
I10
sS'yft'
p1055
I10
sS'eme'
p1056
I1
sS'baw'
p1057
I1
sS'pxm'
p1058
I1
sS'ema'
p1059
I4
sS'bas'
p1060
I1
sS'bap'
p1061
I1
sS'baq'
p1062
I1
sS'emo'
p1063
I1
sS'bad'
p1064
I1
sS'bab'
p1065
I3
sS'nep'
p1066
I1
sS'ban'
p1067
I51
sS'bao'
p1068
I23
sS'bai'
p1069
I28
sS'nuy'
p1070
I1
sS'nuv'
p1071
I1
sS'num'
p1072
I1
sS'nuf'
p1073
I1
sS'iry'
p1074
I1
sS'mup'
p1075
I1
sS'irp'
p1076
I1
sS'irt'
p1077
I4
sS'mux'
p1078
I1
sS'irh'
p1079
I1
sS'iri'
p1080
I1
sS'uqi'
p1081
I18
sS'muo'
p1082
I1
sS'xvb'
p1083
I2
sS'omc'
p1084
I28
sS'zbf'
p1085
I1
sS'oma'
p1086
I11
sS'zbd'
p1087
I1
sS'zbb'
p1088
I1
sS'ome'
p1089
I25
sS'zbo'
p1090
I1
sS'omj'
p1091
I2
sS'omi'
p1092
I3
sS'omh'
p1093
I1
sS'omo'
p1094
I1
sS'zbj'
p1095
I1
sS'zbi'
p1096
I10
sS'oms'
p1097
I1
sS'omp'
p1098
I1
sS'zbs'
p1099
I1
sS'omv'
p1100
I1
sS'omt'
p1101
I4
sS'wtk'
p1102
I2
sS'zbx'
p1103
I1
sS'cop'
p1104
I1
sS'unr'
p1105
I2
sS'ile'
p1106
I11
sS'unt'
p1107
I5
sS'han'
p1108
I84
sS'unv'
p1109
I2
sS'ila'
p1110
I3
sS'uny'
p1111
I5
sS'unz'
p1112
I2
sS'ilj'
p1113
I2
sS'ili'
p1114
I14
sS'ilv'
p1115
I4
sS'ilt'
p1116
I3
sS'ilu'
p1117
I6
sS'und'
p1118
I3
sS'une'
p1119
I11
sS'unf'
p1120
I4
sS'ung'
p1121
I4
sS'unh'
p1122
I2
sS'uni'
p1123
I1
sS'unj'
p1124
I8
sS'unk'
p1125
I1
sS'com'
p1126
I533
sS'unm'
p1127
I3
sS'unn'
p1128
I4
sS'con'
p1129
I2
sS'and'
p1130
I23
sS'gxa'
p1131
I1
sS'ead'
p1132
I1
sS'gxc'
p1133
I6
sS'gxi'
p1134
I36
sS'kwo'
p1135
I1
sS'gxu'
p1136
I2
sS'pra'
p1137
I1
sS'san'
p1138
I3
sS'fra'
p1139
I1
sS'ngy'
p1140
I60
sS'mco'
p1141
I12
sS'mcn'
p1142
I32
sS'xxz'
p1143
I1
sS'xxb'
p1144
I2
sS'sad'
p1145
I8
sS'aiy'
p1146
I66
sS'aix'
p1147
I9
sS'aiz'
p1148
I5
sS'aiu'
p1149
I1
sS'ait'
p1150
I3
sS'aiw'
p1151
I10
sS'aiv'
p1152
I1
sS'aiq'
p1153
I13
sS'aip'
p1154
I17
sS'ais'
p1155
I7
sS'air'
p1156
I2
sS'gnb'
p1157
I1
sS'gnc'
p1158
I2
sS'gna'
p1159
I2
sS'sli'
p1160
I1
sS'aik'
p1161
I9
sS'gne'
p1162
I3
sS'aie'
p1163
I2
sS'sle'
p1164
I1
sS'aig'
p1165
I7
sS'aif'
p1166
I7
sS'aia'
p1167
I4
sS'gno'
p1168
I1
sS'aic'
p1169
I12
sS'aib'
p1170
I18
sS'qwo'
p1171
I1
sS'akp'
p1172
I1
sS'tzb'
p1173
I1
sS'tze'
p1174
I1
sS'aku'
p1175
I3
sS'tzf'
p1176
I1
sS'tzm'
p1177
I2
sS'dhe'
p1178
I1
sS'dha'
p1179
I7
sS'add'
p1180
I3
sS'dhz'
p1181
I1
sS'dhy'
p1182
I1
sS'lqc'
p1183
I1
sS'nik'
p1184
I1
sS'nin'
p1185
I4
sS'nio'
p1186
I1
sS'kis'
p1187
I1
sS'nia'
p1188
I3
sS'vvq'
p1189
I1
sS'qjg'
p1190
I1
sS'tvi'
p1191
I2
sS'kin'
p1192
I3
sS'qjp'
p1193
I1
sS'vvd'
p1194
I1
sS'niw'
p1195
I1
sS'vva'
p1196
I1
sS'niu'
p1197
I2
sS'epv'
p1198
I1
sS'ept'
p1199
I2
sS'xji'
p1200
I1
sS'epo'
p1201
I1
sS'xjp'
p1202
I1
sS'epi'
p1203
I4
sS'epc'
p1204
I3
sS'lcc'
p1205
I24
sS'gku'
p1206
I2
sS'yec'
p1207
I2
sS'yee'
p1208
I10
sS'yeg'
p1209
I2
sS'yey'
p1210
I1
sS'yez'
p1211
I6
sS'hai'
p1212
I8
sS'elh'
p1213
I1
sS'eli'
p1214
I8
sS'hal'
p1215
I1
sS'ham'
p1216
I10
sS'ell'
p1217
I1
sS'hao'
p1218
I25
sS'hab'
p1219
I1
sS'ela'
p1220
I1
sS'hae'
p1221
I4
sS'ele'
p1222
I1
sS'hax'
p1223
I2
sS'hay'
p1224
I1
sS'bni'
p1225
I1
sS'ely'
p1226
I1
sS'hap'
p1227
I1
sS'els'
p1228
I1
sS'has'
p1229
I2
sS'hat'
p1230
I1
sS'elw'
p1231
I1
sS'elt'
p1232
I2
sS'elu'
p1233
I2
sS'opu'
p1234
I1
sS'lcp'
p1235
I2
sS'lcz'
p1236
I11
sS'bpc'
p1237
I4
sS'opz'
p1238
I10
sS'lcg'
p1239
I1
sS'lce'
p1240
I1
sS'opa'
p1241
I5
sS'opc'
p1242
I1
sS'lcn'
p1243
I2
sS'lco'
p1244
I13
sS'lcj'
p1245
I1
sS'opi'
p1246
I1
sS'lch'
p1247
I1
sS'qxb'
p1248
I1
sS'qxc'
p1249
I4
sS'vds'
p1250
I1
sS'jyu'
p1251
I9
sS'vdw'
p1252
I2
sS'ywz'
p1253
I10
sS'qxm'
p1254
I1
sS'vde'
p1255
I2
sS'qxw'
p1256
I4
sS'ywa'
p1257
I2
sS'qxu'
p1258
I1
sS'jyo'
p1259
I1
sS'ywl'
p1260
I1
sS'eew'
p1261
I1
sS'ola'
p1262
I3
sS'www'
p1263
I22
sS'olc'
p1264
I10
sS'old'
p1265
I1
sS'ole'
p1266
I2
sS'wws'
p1267
I2
sS'zcc'
p1268
I11
sS'oli'
p1269
I3
sS'zcn'
p1270
I1
sS'zco'
p1271
I11
sS'wwy'
p1272
I1
sS'olo'
p1273
I2
sS'ols'
p1274
I1
sS'wwa'
p1275
I4
sS'olu'
p1276
I3
sS'wwl'
p1277
I1
sS'jyy'
p1278
I1
sS'wwi'
p1279
I2
sS'wwh'
p1280
I3
sS'wwk'
p1281
I9
sS'wwj'
p1282
I3
sS'ick'
p1283
I1
sS'cnw'
p1284
I3
sS'fov'
p1285
I1
sS'ich'
p1286
I16
sS'ico'
p1287
I15
sS'ump'
p1288
I1
sS'for'
p1289
I2
sS'cnq'
p1290
I1
sS'ica'
p1291
I5
sS'umy'
p1292
I1
sS'ykm'
p1293
I1
sS'ume'
p1294
I2
sS'umd'
p1295
I1
sS'cne'
p1296
I1
sS'uma'
p1297
I4
sS'fob'
p1298
I1
sS'umb'
p1299
I1
sS'fol'
p1300
I1
sS'ykz'
p1301
I1
sS'icp'
p1302
I4
sS'icw'
p1303
I2
sS'cnh'
p1304
I2
sS'hsb'
p1305
I1
sS'hsc'
p1306
I3
sS'plt'
p1307
I1
sS'hsd'
p1308
I1
sS'hsh'
p1309
I1
sS'plx'
p1310
I1
sS'twa'
p1311
I3
sS'pla'
p1312
I10
sS'hsz'
p1313
I1
sS'hsx'
p1314
I11
sS'ete'
p1315
I1
sS'plj'
p1316
I1
sS'pli'
p1317
I1
sS'iww'
p1318
I4
sS'obl'
p1319
I1
sS'zuq'
p1320
I11
sS'obi'
p1321
I1
sS'obe'
p1322
I1
sS'obc'
p1323
I1
sS'oba'
p1324
I9
sS'zuc'
p1325
I1
sS'zua'
p1326
I1
sS'obv'
p1327
I1
sS'zuh'
p1328
I1
sS'zui'
p1329
I2
sS'zuo'
p1330
I2
sS'ppc'
p1331
I2
sS'ahc'
p1332
I20
sS'aha'
p1333
I4
sS'mbj'
p1334
I2
sS'ahe'
p1335
I1
sS'xyx'
p1336
I1
sS'ahk'
p1337
I1
sS'soj'
p1338
I3
sS'aho'
p1339
I2
sS'ppm'
p1340
I1
sS'son'
p1341
I14
sS'pps'
p1342
I1
sS'xya'
p1343
I1
sS'ahq'
p1344
I2
sS'mby'
p1345
I1
sS'xyf'
p1346
I1
sS'xyg'
p1347
I1
sS'wwq'
p1348
I1
sS'ppy'
p1349
I1
sS'xyl'
p1350
I10
sS'awe'
p1351
I1
sS'wan'
p1352
I137
sS'wai'
p1353
I4
sS'dnt'
p1354
I1
sS'sne'
p1355
I3
sS'awa'
p1356
I5
sS'wav'
p1357
I1
sS'wat'
p1358
I1
sS'war'
p1359
I2
sS'wap'
p1360
I2
sS'wwz'
p1361
I1
sS'azh'
p1362
I15
sS'aec'
p1363
I2
sS'azm'
p1364
I1
sS'xwy'
p1365
I4
sS'iqu'
p1366
I3
sS'aza'
p1367
I4
sS'snc'
p1368
I1
sS'azc'
p1369
I2
sS'mtw'
p1370
I4
sS'mtk'
p1371
I1
sS'azz'
p1372
I1
sS'iqi'
p1373
I24
sS'mtm'
p1374
I1
sS'azp'
p1375
I1
sS'iqf'
p1376
I1
sS'azu'
p1377
I2
sS'nno'
p1378
I2
sS'qil'
p1379
I2
sS'qio'
p1380
I1
sS'qin'
p1381
I27
sS'qih'
p1382
I8
sS'nni'
p1383
I1
sS'qij'
p1384
I1
sS'qid'
p1385
I1
sS'qig'
p1386
I4
sS'qia'
p1387
I22
sS'nna'
p1388
I6
sS'khw'
p1389
I1
sS'khh'
p1390
I1
sS'vwo'
p1391
I1
sS'qiy'
p1392
I3
sS'qix'
p1393
I4
sS'vwj'
p1394
I1
sS'kho'
p1395
I1
sS'qiu'
p1396
I23
sS'nnv'
p1397
I2
sS'qiw'
p1398
I1
sS'qiq'
p1399
I5
sS'vwa'
p1400
I1
sS'nnq'
p1401
I1
sS'tiy'
p1402
I3
sS'xkd'
p1403
I10
sS'xkz'
p1404
I1
sS'tin'
p1405
I6
sS'tih'
p1406
I1
sS'tik'
p1407
I2
sS'tia'
p1408
I8
sS'tic'
p1409
I2
sS'sqw'
p1410
I1
sS'ici'
p1411
I1
sS'kvi'
p1412
I2
sS'umq'
p1413
I1
sS'icn'
p1414
I6
sS'nxu'
p1415
I8
sS'sno'
p1416
I1
sS'fsc'
p1417
I11
sS'fsd'
p1418
I5
sS'nxp'
p1419
I1
sS'nkq'
p1420
I1
sS'kgc'
p1421
I3
sS'skw'
p1422
I1
sS'fst'
p1423
I1
sS'nxb'
p1424
I1
sS'nxi'
p1425
I57
sS'nxh'
p1426
I1
sS'roi'
p1427
I2
sS'jml'
p1428
I1
sS'ron'
p1429
I12
sS'osu'
p1430
I3
sS'ost'
p1431
I1
sS'osi'
p1432
I1
sS'osh'
p1433
I16
sS'lli'
p1434
I2
sS'llo'
p1435
I1
sS'cnx'
p1436
I1
sS'osn'
p1437
I1
sS'ror'
p1438
I1
sS'rot'
p1439
I1
sS'osd'
p1440
I1
sS'tkc'
p1441
I1
sS'vew'
p1442
I2
sS'bqb'
p1443
I1
sS'icz'
p1444
I1
sS'yvy'
p1445
I1
sS'bqh'
p1446
I1
sS'bqt'
p1447
I2
sS'veb'
p1448
I3
sS'uqw'
p1449
I1
sS'yvj'
p1450
I1
sS'umc'
p1451
I2
sS'cnn'
p1452
I6
sS'guc'
p1453
I2
sS'din'
p1454
I7
sS'dio'
p1455
I1
sS'jhe'
p1456
I1
sS'guf'
p1457
I2
sS'dij'
p1458
I1
sS'dik'
p1459
I2
sS'guj'
p1460
I1
sS'gui'
p1461
I4
sS'guo'
p1462
I33
sS'dia'
p1463
I10
sS'gum'
p1464
I2
sS'jhs'
p1465
I1
sS'guv'
p1466
I2
sS'diz'
p1467
I4
sS'deq'
p1468
I4
sS'jhy'
p1469
I1
sS'guz'
p1470
I1
sS'guy'
p1471
I1
sS'dip'
p1472
I1
sS'diq'
p1473
I4
sS'dis'
p1474
I1
sS'plw'
p1475
I1
sS'htc'
p1476
I2
sS'hto'
p1477
I1
sS'hth'
p1478
I1
sS'rui'
p1479
I1
sS'pmh'
p1480
I1
sS'ufm'
p1481
I1
sS'erd'
p1482
I2
sS'tnd'
p1483
I2
sS'ydl'
p1484
I1
sS'tnc'
p1485
I10
sS'prg'
p1486
I1
sS'zzp'
p1487
I1
sS'box'
p1488
I2
sS'boy'
p1489
I7
sS'boz'
p1490
I1
sS'dec'
p1491
I11
sS'ngb'
p1492
I28
sS'boq'
p1493
I4
sS'eke'
p1494
I1
sS'bos'
p1495
I2
sS'bot'
p1496
I1
sS'bov'
p1497
I1
sS'bow'
p1498
I2
sS'boh'
p1499
I2
sS'boj'
p1500
I2
sS'bok'
p1501
I3
sS'bol'
p1502
I4
sS'hbx'
p1503
I1
sS'bon'
p1504
I1
sS'bob'
p1505
I1
sS'boc'
p1506
I20
sS'eks'
p1507
I1
sS'boe'
p1508
I1
sS'bof'
p1509
I2
sS'bog'
p1510
I4
sS'ipb'
p1511
I2
sS'ipc'
p1512
I1
sS'fbq'
p1513
I1
sS'ipa'
p1514
I31
sS'uzh'
p1515
I68
sS'hst'
p1516
I1
sS'fbu'
p1517
I1
sS'fbt'
p1518
I2
sS'ipj'
p1519
I10
sS'uze'
p1520
I5
sS'iph'
p1521
I4
sS'ipi'
p1522
I24
sS'uzc'
p1523
I1
sS'fbc'
p1524
I1
sS'fbb'
p1525
I10
sS'fba'
p1526
I2
sS'ipq'
p1527
I20
sS'fbe'
p1528
I1
sS'rus'
p1529
I1
sS'uzu'
p1530
I2
sS'fbh'
p1531
I1
sS'aym'
p1532
I1
sS'ayo'
p1533
I1
sS'ayj'
p1534
I1
sS'aye'
p1535
I4
sS'ayf'
p1536
I6
sS'aya'
p1537
I1
sS'ayc'
p1538
I10
sS'msp'
p1539
I2
sS'ayx'
p1540
I2
sS'msh'
p1541
I1
sS'ayu'
p1542
I13
sS'ksa'
p1543
I1
sS'msd'
p1544
I1
sS'msc'
p1545
I1
sS'msa'
p1546
I5
sS'ksc'
p1547
I2
sS'ooc'
p1548
I1
sS'oob'
p1549
I1
sS'oom'
p1550
I1
sS'ool'
p1551
I10
sS'oot'
p1552
I1
sS'oor'
p1553
I3
sS'oox'
p1554
I1
sS'ibh'
p1555
I1
sS'ibi'
p1556
I7
sS'ibj'
p1557
I1
sS'yjc'
p1558
I9
sS'ibl'
p1559
I3
sS'ibo'
p1560
I13
sS'iba'
p1561
I16
sS'yjj'
p1562
I1
sS'ulv'
p1563
I2
sS'ult'
p1564
I1
sS'ulu'
p1565
I5
sS'cak'
p1566
I1
sS'cai'
p1567
I51
sS'uli'
p1568
I2
sS'cao'
p1569
I2
sS'cal'
p1570
I1
sS'uam'
p1571
I2
sS'ibt'
p1572
I2
sS'ibu'
p1573
I3
sS'ule'
p1574
I106
sS'kyj'
p1575
I9
sS'gzh'
p1576
I30
sS'ger'
p1577
I2
sS'spq'
p1578
I4
sS'gzd'
p1579
I1
sS'gze'
p1580
I2
sS'gzc'
p1581
I2
sS'dxq'
p1582
I1
sS'gza'
p1583
I1
sS'dxg'
p1584
I2
sS'gzw'
p1585
I1
sS'dxe'
p1586
I1
sS'gzu'
p1587
I3
sS'kyu'
p1588
I2
sS'gzq'
p1589
I1
sS'nyy'
p1590
I1
sS'ssz'
p1591
I1
sS'nyu'
p1592
I26
sS'fpt'
p1593
I1
sS'fpw'
p1594
I3
sS'nyi'
p1595
I21
sS'nyo'
p1596
I3
sS'gez'
p1597
I3
sS'nya'
p1598
I20
sS'nyf'
p1599
I10
sS'aof'
p1600
I3
sS'xzw'
p1601
I10
sS'aod'
p1602
I6
sS'aoc'
p1603
I3
sS'xzp'
p1604
I1
sS'maw'
p1605
I1
sS'aon'
p1606
I4
sS'aom'
p1607
I19
sS'aol'
p1608
I7
sS'aok'
p1609
I9
sS'aoj'
p1610
I6
sS'aoh'
p1611
I2
sS'aow'
p1612
I14
sS'snw'
p1613
I1
sS'aot'
p1614
I7
sS'aos'
p1615
I15
sS'aor'
p1616
I1
sS'mag'
p1617
I2
sS'aop'
p1618
I7
sS'pqx'
p1619
I4
sS'mah'
p1620
I1
sS'mak'
p1621
I1
sS'maj'
p1622
I3
sS'mam'
p1623
I3
sS'aoz'
p1624
I6
sS'aoy'
p1625
I15
sS'aox'
p1626
I6
sS'ghu'
p1627
I16
sS'zni'
p1628
I1
sS'ghx'
p1629
I1
sS'znn'
p1630
I8
sS'ghz'
p1631
I1
sS'hon'
p1632
I35
sS'gha'
p1633
I3
sS'ghn'
p1634
I5
sS'gho'
p1635
I4
sS'ghj'
p1636
I1
sS'mbl'
p1637
I1
sS'lsd'
p1638
I2
sS'enk'
p1639
I5
sS'lsc'
p1640
I11
sS'tts'
p1641
I1
sS'ttq'
p1642
I1
sS'ged'
p1643
I12
sS'ttv'
p1644
I1
sS'lss'
p1645
I1
sS'ttl'
p1646
I1
sS'djq'
p1647
I1
sS'gta'
p1648
I11
sS'jid'
p1649
I3
sS'jie'
p1650
I15
sS'jib'
p1651
I2
sS'xyv'
p1652
I1
sS'jia'
p1653
I100
sS'jin'
p1654
I87
sS'gti'
p1655
I1
sS'jil'
p1656
I1
sS'jim'
p1657
I1
sS'jij'
p1658
I3
sS'jik'
p1659
I1
sS'jih'
p1660
I3
sS'jii'
p1661
I1
sS'jiv'
p1662
I1
sS'vtp'
p1663
I1
sS'jit'
p1664
I1
sS'jiu'
p1665
I21
sS'gtu'
p1666
I3
sS'gtv'
p1667
I1
sS'djf'
p1668
I1
sS'gty'
p1669
I1
sS'dyc'
p1670
I1
sS'jiz'
p1671
I2
sS'jix'
p1672
I4
sS'jiy'
p1673
I12
sS'nol'
p1674
I1
sS'noo'
p1675
I1
sS'hop'
p1676
I10
sS'tji'
p1677
I1
sS'nof'
p1678
I1
sS'kkq'
p1679
I1
sS'noa'
p1680
I1
sS'noc'
p1681
I2
sS'tjs'
p1682
I1
sS'qha'
p1683
I1
sS'nox'
p1684
I1
sS'now'
p1685
I2
sS'xlc'
p1686
I1
sS'sor'
p1687
I1
sS'fen'
p1688
I11
sS'ahu'
p1689
I1
sS'eji'
p1690
I17
sS'eja'
p1691
I1
sS'ejc'
p1692
I4
sS'hcc'
p1693
I11
sS'blo'
p1694
I6
sS'shc'
p1695
I10
sS'ejz'
p1696
I2
sS'hch'
p1697
I10
sS'hcn'
p1698
I3
sS'hco'
p1699
I30
sS'aed'
p1700
I2
sS'rli'
p1701
I1
sS'ort'
p1702
I4
sS'oru'
p1703
I1
sS'lmt'
p1704
I1
sS'rlc'
p1705
I1
sS'lmi'
p1706
I1
sS'rlu'
p1707
I1
sS'org'
p1708
I24
sS'lmb'
p1709
I2
sS'lmc'
p1710
I2
sS'orb'
p1711
I1
sS'lme'
p1712
I2
sS'yuy'
p1713
I3
sS'yux'
p1714
I1
sS'yuz'
p1715
I5
sS'vjs'
p1716
I1
sS'vjp'
p1717
I1
sS'yut'
p1718
I8
sS'yuh'
p1719
I2
sS'yuk'
p1720
I2
sS'yuj'
p1721
I1
sS'yul'
p1722
I101
sS'yuo'
p1723
I1
sS'yun'
p1724
I35
sS'yua'
p1725
I6
sS'jwa'
p1726
I1
sS'yuc'
p1727
I7
sS'yub'
p1728
I2
sS'yue'
p1729
I2
sS'yud'
p1730
I5
sS'oni'
p1731
I2
sS'zai'
p1732
I6
sS'onc'
p1733
I3
sS'ona'
p1734
I3
sS'ong'
p1735
I141
sS'one'
p1736
I19
sS'ebg'
p1737
I1
sS'zay'
p1738
I1
sS'wqe'
p1739
I1
sS'zap'
p1740
I3
sS'eba'
p1741
I2
sS'iam'
p1742
I3
sS'ial'
p1743
I16
sS'iao'
p1744
I40
sS'yif'
p1745
I1
sS'iah'
p1746
I3
sS'iak'
p1747
I6
sS'yib'
p1748
I1
sS'uku'
p1749
I5
sS'yin'
p1750
I52
sS'yih'
p1751
I4
sS'yik'
p1752
I7
sS'yij'
p1753
I2
sS'uko'
p1754
I1
sS'yiq'
p1755
I1
sS'ukj'
p1756
I1
sS'yis'
p1757
I1
sS'iaz'
p1758
I6
sS'fmf'
p1759
I10
sS'uke'
p1760
I10
sS'yiy'
p1761
I5
sS'yix'
p1762
I4
sS'uka'
p1763
I1
sS'yiz'
p1764
I1
sS'hud'
p1765
I2
sS'hua'
p1766
I59
sS'hub'
p1767
I4
sS'huc'
p1768
I27
sS'hul'
p1769
I4
sS'hum'
p1770
I1
sS'huo'
p1771
I3
sS'huh'
p1772
I2
sS'hui'
p1773
I17
sS'huj'
p1774
I1
sS'huw'
p1775
I3
sS'hup'
p1776
I2
sS'huq'
p1777
I1
sS'hur'
p1778
I1
sS'hus'
p1779
I13
sS'njc'
p1780
I6
sS'huz'
p1781
I3
sS'zsw'
p1782
I20
sS'ebv'
p1783
I2
sS'zsd'
p1784
I2
sS'lho'
p1785
I1
sS'mky'
p1786
I1
sS'iay'
p1787
I1
sS'zso'
p1788
I1
sS'pre'
p1789
I11
sS'ane'
p1790
I15
sS'anf'
p1791
I8
sS'ang'
p1792
I354
sS'sao'
p1793
I1
sS'ana'
p1794
I2
sS'anb'
p1795
I26
sS'anc'
p1796
I30
sS'anl'
p1797
I20
sS'anm'
p1798
I5
sS'ann'
p1799
I4
sS'anh'
p1800
I12
sS'ani'
p1801
I1
sS'anj'
p1802
I30
sS'ank'
p1803
I4
sS'ant'
p1804
I15
sS'anv'
p1805
I2
sS'anw'
p1806
I13
sS'anp'
p1807
I9
sS'anq'
p1808
I15
sS'anr'
p1809
I2
sS'ans'
p1810
I40
sS'anx'
p1811
I20
sS'any'
p1812
I28
sS'anz'
p1813
I20
sS'gky'
p1814
I2
sS'wcs'
p1815
I1
sS'gks'
p1816
I1
sS'zol'
p1817
I1
sS'zom'
p1818
I1
sS'gki'
p1819
I3
sS'wcb'
p1820
I1
sS'zou'
p1821
I8
sS'gka'
p1822
I39
sS'wch'
p1823
I1
sS'wco'
p1824
I23
sS'wcn'
p1825
I15
sS'iwe'
p1826
I5
sS'uyu'
p1827
I12
sS'iwa'
p1828
I9
sS'iwm'
p1829
I1
sS'iwj'
p1830
I3
sS'iwi'
p1831
I1
sS'uya'
p1832
I1
sS'iwu'
p1833
I1
sS'fcc'
p1834
I1
sS'uye'
p1835
I10
sS'pwx'
p1836
I1
sS'uyf'
p1837
I1
sS'uyi'
p1838
I3
sS'uyh'
p1839
I4
sS'uyl'
p1840
I1
sS'uyo'
p1841
I3
sS'fco'
p1842
I3
sS'axu'
p1843
I5
sS'yqq'
p1844
I2
sS'axx'
p1845
I1
sS'mrs'
p1846
I1
sS'dlk'
p1847
I1
sS'wnu'
p1848
I1
sS'jpa'
p1849
I2
sS'hzz'
p1850
I1
sS'axi'
p1851
I4
sS'pwc'
p1852
I3
sS'nls'
p1853
I10
sS'nlt'
p1854
I1
sS'nly'
p1855
I1
sS'aqb'
p1856
I1
sS'tkh'
p1857
I1
sS'nla'
p1858
I6
sS'tkt'
p1859
I21
sS'lfv'
p1860
I2
sS'ytp'
p1861
I4
sS'nli'
p1862
I7
sS'nlj'
p1863
I1
sS'nll'
p1864
I1
sS'nlo'
p1865
I1
sS'xmi'
p1866
I1
sS'xme'
p1867
I1
sS'pwh'
p1868
I2
sS'mtz'
p1869
I1
sS'gep'
p1870
I4
sS'unw'
p1871
I4
sS'get'
p1872
I1
sS'sst'
p1873
I11
sS'gey'
p1874
I1
sS'gex'
p1875
I1
sS'dyl'
p1876
I1
sS'sso'
p1877
I1
sS'dyk'
p1878
I1
sS'ssd'
p1879
I1
sS'gei'
p1880
I2
sS'dyg'
p1881
I10
sS'gen'
p1882
I1
sS'ssc'
p1883
I20
sS'gel'
p1884
I1
sS'zer'
p1885
I1
sS'fqd'
p1886
I6
sS'ail'
p1887
I25
sS'rme'
p1888
I1
sS'lna'
p1889
I1
sS'fdq'
p1890
I10
sS'ias'
p1891
I4
sS'keh'
p1892
I2
sS'ytr'
p1893
I1
sS'jts'
p1894
I1
sS'ytn'
p1895
I1
sS'yto'
p1896
I1
sS'ytj'
p1897
I1
sS'jte'
p1898
I1
sS'zhe'
p1899
I72
sS'vkf'
p1900
I1
sS'tuy'
p1901
I4
sS'tuz'
p1902
I1
sS'utt'
p1903
I1
sS'ewu'
p1904
I3
sS'utu'
p1905
I2
sS'tut'
p1906
I2
sS'tuu'
p1907
I1
sS'tui'
p1908
I1
sS'tuj'
p1909
I10
sS'tuk'
p1910
I1
sS'tun'
p1911
I2
sS'ime'
p1912
I3
sS'tub'
p1913
I1
sS'tud'
p1914
I2
sS'tug'
p1915
I1
sS'gwe'
p1916
I1
sS'gwa'
p1917
I12
sS'vuc'
p1918
I1
sS'dkq'
p1919
I1
sS'kjj'
p1920
I2
sS'gwl'
p1921
I1
sS'gwo'
p1922
I3
sS'gwn'
p1923
I2
sS'jfd'
p1924
I1
sS'vuv'
p1925
I1
sS'cld'
p1926
I1
sS'gww'
p1927
I1
sS'vuq'
p1928
I1
sS'vuz'
p1929
I1
sS'dkk'
p1930
I1
sS'jft'
p1931
I1
sS'hvi'
p1932
I1
sS'hvh'
p1933
I1
sS'poz'
p1934
I2
sS'pou'
p1935
I1
sS'por'
p1936
I2
sS'poq'
p1937
I2
sS'hvy'
p1938
I2
sS'hvx'
p1939
I1
sS'pol'
p1940
I1
sS'poj'
p1941
I1
sS'tua'
p1942
I1
sS'pof'
p1943
I2
sS'pod'
p1944
I10
sS'hvu'
p1945
I3
sS'hvv'
p1946
I3
sS'twe'
p1947
I10
sS'aij'
p1948
I33
sS'cql'
p1949
I1
sS'usx'
p1950
I1
sS'zpl'
p1951
I2
sS'nnf'
p1952
I6
sS'cqs'
p1953
I1
sS'hzq'
p1954
I1
sS'cqw'
p1955
I1
sS'nne'
p1956
I12
sS'zpf'
p1957
I1
sS'bmc'
p1958
I1
sS'qsa'
p1959
I1
sS'yzt'
p1960
I1
sS'bmg'
p1961
I1
sS'bmj'
p1962
I1
sS'qsi'
p1963
I1
sS'qsu'
p1964
I1
sS'bmz'
p1965
I1
sS'yzi'
p1966
I1
sS'yzj'
p1967
I1
sS'qib'
p1968
I4
sS'eiq'
p1969
I1
sS'eis'
p1970
I6
sS'eiu'
p1971
I6
sS'eit'
p1972
I2
sS'eiy'
p1973
I14
sS'uoo'
p1974
I1
sS'eiz'
p1975
I2
sS'eia'
p1976
I2
sS'eic'
p1977
I5
sS'eie'
p1978
I1
sS'eid'
p1979
I1
sS'eig'
p1980
I3
sS'eif'
p1981
I5
sS'eij'
p1982
I3
sS'eil'
p1983
I4
sS'ein'
p1984
I10
sS'ive'
p1985
I2
sS'uxu'
p1986
I4
sS'mqm'
p1987
I1
sS'ivi'
p1988
I5
sS'mqp'
p1989
I1
sS'ivw'
p1990
I1
sS'uxb'
p1991
I1
sS'ivs'
p1992
I2
sS'uxn'
p1993
I1
sS'uxk'
p1994
I2
sS'uxi'
p1995
I41
sS'hxc'
p1996
I1
sS'paw'
p1997
I1
sS'pax'
p1998
I1
sS'qip'
p1999
I29
sS'hxs'
p2000
I6
sS'oky'
p2001
I1
sS'hxu'
p2002
I2
sS'cen'
p2003
I4
sS'pai'
p2004
I41
sS'paj'
p2005
I2
sS'pal'
p2006
I1
sS'pan'
p2007
I1
sS'oij'
p2008
I1
sS'gtw'
p2009
I1
sS'oie'
p2010
I3
sS'wpw'
p2011
I1
sS'wpl'
p2012
I2
sS'cyf'
p2013
I2
sS'qff'
p2014
I6
sS'oip'
p2015
I2
sS'yhk'
p2016
I1
sS'ujx'
p2017
I1
sS'ujz'
p2018
I1
sS'yhb'
p2019
I1
sS'dkj'
p2020
I1
sS'ujw'
p2021
I1
sS'yhg'
p2022
I4
sS'gwx'
p2023
I1
sS'yhz'
p2024
I1
sS'cco'
p2025
I27
sS'ccn'
p2026
I31
sS'uji'
p2027
I24
sS'ces'
p2028
I11
sS'gdu'
p2029
I10
sS'gdy'
p2030
I1
sS'gda'
p2031
I13
sS'gde'
p2032
I5
sS'gdi'
p2033
I3
sS'gdo'
p2034
I1
sS'rpw'
p2035
I2
sS'fvi'
p2036
I2
sS'fvu'
p2037
I1
sS'grc'
p2038
I1
sS'ami'
p2039
I15
sS'psk'
p2040
I1
sS'psn'
p2041
I1
sS'ama'
p2042
I4
sS'mor'
p2043
I1
sS'amb'
p2044
I1
sS'ame'
p2045
I4
sS'mou'
p2046
I1
sS'psz'
p2047
I1
sS'mon'
p2048
I1
sS'amu'
p2049
I1
sS'nax'
p2050
I1
sS'gjz'
p2051
I2
sS'gjx'
p2052
I1
sS'poo'
p2053
I1
sS'gjw'
p2054
I1
sS'zli'
p2055
I2
sS'gjs'
p2056
I1
sS'gjj'
p2057
I1
sS'gjh'
p2058
I1
sS'gji'
p2059
I69
sS'gjb'
p2060
I1
sS'gjc'
p2061
I2
sS'uca'
p2062
I2
sS'ezu'
p2063
I1
sS'tvp'
p2064
I1
sS'ezm'
p2065
I1
sS'ezh'
p2066
I20
sS'eze'
p2067
I1
sS'tvg'
p2068
I1
sS'tvf'
p2069
I1
sS'jgj'
p2070
I1
sS'ddx'
p2071
I1
sS'ddq'
p2072
I1
sS'ddw'
p2073
I1
sS'vzf'
p2074
I1
sS'kmi'
p2075
I1
sS'rpl'
p2076
I1
sS'jgy'
p2077
I7
sS'ddh'
p2078
I2
sS'ddl'
p2079
I1
sS'gvs'
p2080
I4
sS'gvp'
p2081
I1
sS'uch'
p2082
I12
sS'jgt'
p2083
I1
sS'gvw'
p2084
I1
sS'dde'
p2085
I1
sS'tdj'
p2086
I20
sS'tdc'
p2087
I10
sS'tdb'
p2088
I1
sS'nmz'
p2089
I1
sS'qnd'
p2090
I1
sS'nme'
p2091
I12
sS'heq'
p2092
I1
sS'nma'
p2093
I7
sS'oro'
p2094
I1
sS'nmi'
p2095
I12
sS'dzc'
p2096
I1
sS'dzb'
p2097
I1
sS'srf'
p2098
I3
sS'ack'
p2099
I1
sS'xnx'
p2100
I1
sS'bbh'
p2101
I7
sS'aco'
p2102
I3
sS'acn'
p2103
I4
sS'dzo'
p2104
I1
sS'dzs'
p2105
I20
sS'xnm'
p2106
I1
sS'xno'
p2107
I1
sS'bjg'
p2108
I2
sS'yyt'
p2109
I1
sS'bjc'
p2110
I1
sS'bjb'
p2111
I1
sS'qrg'
p2112
I1
sS'bjl'
p2113
I6
sS'yyx'
p2114
I1
sS'bji'
p2115
I2
sS'qro'
p2116
I2
sS'qrt'
p2117
I4
sS'bjr'
p2118
I1
sS'yyc'
p2119
I2
sS'bjp'
p2120
I2
sS'yyl'
p2121
I1
sS'yyo'
p2122
I4
sS'ehv'
p2123
I6
sS'ehw'
p2124
I2
sS'ehu'
p2125
I2
sS'ehs'
p2126
I2
sS'hes'
p2127
I1
sS'lon'
p2128
I40
sS'hey'
p2129
I1
sS'ehx'
p2130
I1
sS'ehy'
p2131
I2
sS'hef'
p2132
I1
sS'lov'
p2133
I2
sS'heb'
p2134
I1
sS'eha'
p2135
I2
sS'ehn'
p2136
I3
sS'hem'
p2137
I2
sS'hen'
p2138
I215
sS'heh'
p2139
I1
sS'hei'
p2140
I2
sS'hej'
p2141
I4
sS'jul'
p2142
I3
sS'iwc'
p2143
I1
sS'rjj'
p2144
I1
sS'bbq'
p2145
I3
sS'vhj'
p2146
I1
sS'vhe'
p2147
I2
sS'vhf'
p2148
I1
sS'uib'
p2149
I1
sS'cbg'
p2150
I1
sS'uig'
p2151
I2
sS'uif'
p2152
I1
sS'uih'
p2153
I1
sS'rvi'
p2154
I1
sS'uij'
p2155
I4
sS'uim'
p2156
I1
sS'uil'
p2157
I1
sS'cbm'
p2158
I1
sS'uip'
p2159
I1
sS'cbp'
p2160
I4
sS'cbw'
p2161
I1
sS'cbt'
p2162
I1
sS'uiy'
p2163
I3
sS'uix'
p2164
I1
sS'uiz'
p2165
I6
sS'nki'
p2166
I1
sS'yon'
p2167
I25
sS'igu'
p2168
I13
sS'gkg'
p2169
I2
sS'uzo'
p2170
I2
sS'oul'
p2171
I2
sS'ige'
p2172
I2
sS'igc'
p2173
I1
sS'iga'
p2174
I3
sS'igo'
p2175
I8
sS'you'
p2176
I43
sS'yor'
p2177
I1
sS'igi'
p2178
I1
sS'gkf'
p2179
I1
sS'iza'
p2180
I1
sS'fsw'
p2181
I1
sS'hwa'
p2182
I3
sS'mya'
p2183
I1
sS'wgf'
p2184
I1
sS'hwx'
p2185
I1
sS'hww'
p2186
I2
sS'hwp'
p2187
I1
sS'max'
p2188
I1
sS'cpl'
p2189
I3
sS'zqy'
p2190
I1
sS'zqw'
p2191
I1
sS'cpc'
p2192
I4
sS'cpx'
p2193
I1
sS'izi'
p2194
I3
sS'cpp'
p2195
I1
sS'rxu'
p2196
I1
sS'zqc'
p2197
I1
sS'pto'
p2198
I3
sS'alo'
p2199
I2
sS'sco'
p2200
I74
sS'scn'
p2201
I14
sS'ali'
p2202
I16
sS'ptg'
p2203
I1
sS'ale'
p2204
I16
sS'ptc'
p2205
I1
sS'alc'
p2206
I1
sS'goc'
p2207
I3
sS'uiw'
p2208
I2
sS'ptx'
p2209
I1
sS'ptw'
p2210
I1
sS'alw'
p2211
I1
sS'pts'
p2212
I1
sS'scs'
p2213
I8
sS'zmi'
p2214
I2
sS'zma'
p2215
I1
sS'wmi'
p2216
I1
sS'wmh'
p2217
I1
sS'dwm'
p2218
I10
sS'zmt'
p2219
I1
sS'faz'
p2220
I1
sS'iuh'
p2221
I17
sS'iuk'
p2222
I1
sS'iuj'
p2223
I1
sS'ium'
p2224
I2
sS'mpc'
p2225
I10
sS'fas'
p2226
I6
sS'fap'
p2227
I7
sS'iub'
p2228
I3
sS'iud'
p2229
I1
sS'iug'
p2230
I2
sS'iuf'
p2231
I9
sS'iuy'
p2232
I15
sS'iux'
p2233
I2
sS'iuz'
p2234
I2
sS'mpr'
p2235
I1
sS'mps'
p2236
I1
sS'fal'
p2237
I1
sS'iuq'
p2238
I2
sS'fac'
p2239
I2
sS'uwa'
p2240
I10
sS'iur'
p2241
I2
sS'iuu'
p2242
I1
sS'iut'
p2243
I3
sS'iuw'
p2244
I1
sS'mpy'
p2245
I1
sS'wsc'
p2246
I2
sS'dse'
p2247
I1
sS'wsd'
p2248
I1
sS'roy'
p2249
I1
sS'hyh'
p2250
I1
sS'smc'
p2251
I1
sS'wsm'
p2252
I1
sS'wsn'
p2253
I1
sS'pbf'
p2254
I10
sS'hyt'
p2255
I1
sS'hyv'
p2256
I1
sS'eix'
p2257
I2
sS'hyz'
p2258
I1
sS'wsz'
p2259
I1
sS'pbi'
p2260
I2
sS'pbj'
p2261
I1
sS'tel'
p2262
I1
sS'tem'
p2263
I1
sS'ten'
p2264
I1
sS'qgw'
p2265
I2
sS'qms'
p2266
I1
sS'qmr'
p2267
I1
sS'nbu'
p2268
I3
sS'qmi'
p2269
I1
sS'nbj'
p2270
I1
sS'nbi'
p2271
I4
sS'nbo'
p2272
I7
sS'tep'
p2273
I1
sS'puh'
p2274
I1
sS'nba'
p2275
I26
sS'edx'
p2276
I1
sS'nbe'
p2277
I2
sS'nbd'
p2278
I1
sS'suf'
p2279
I1
sS'sud'
p2280
I2
sS'sua'
p2281
I1
sS'suo'
p2282
I2
sS'abi'
p2283
I3
sS'abo'
p2284
I1
sS'abs'
p2285
I1
sS'sus'
p2286
I2
sS'abu'
p2287
I1
sS'abz'
p2288
I1
sS'ggu'
p2289
I24
sS'ggp'
p2290
I1
sS'kzb'
p2291
I1
sS'kza'
p2292
I1
sS'gga'
p2293
I5
sS'ggm'
p2294
I1
sS'ggo'
p2295
I1
sS'ggn'
p2296
I1
sS'fwa'
p2297
I2
sS'hec'
p2298
I41
sS'fws'
p2299
I1
sS'vic'
p2300
I4
sS'vie'
p2301
I5
sS'rky'
p2302
I1
sS'vip'
p2303
I32
sS'jrt'
p2304
I1
sS'jrr'
p2305
I1
sS'eya'
p2306
I8
sS'twc'
p2307
I1
sS'eyb'
p2308
I1
sS'eyf'
p2309
I2
sS'eyi'
p2310
I4
sS'twi'
p2311
I2
sS'cho'
p2312
I2
sS'yvf'
p2313
I1
sS'eyo'
p2314
I4
sS'eyq'
p2315
I1
sS'eyu'
p2316
I7
sS'eyt'
p2317
I1
sS'eyy'
p2318
I1
sS'qcn'
p2319
I3
sS'jdm'
p2320
I1
sS'dey'
p2321
I1
sS'dez'
p2322
I6
sS'gqi'
p2323
I20
sS'gqf'
p2324
I3
sS'der'
p2325
I1
sS'des'
p2326
I2
sS'det'
p2327
I1
sS'jdc'
p2328
I4
sS'dew'
p2329
I1
sS'deh'
p2330
I10
sS'dej'
p2331
I2
sS'dek'
p2332
I1
sS'del'
p2333
I4
sS'dem'
p2334
I1
sS'den'
p2335
I4
sS'gqw'
p2336
I2
sS'jdt'
p2337
I1
sS'gqu'
p2338
I2
sS'jdv'
p2339
I1
sS'ded'
p2340
I3
sS'dee'
p2341
I1
sS'deg'
p2342
I2
sS'hhs'
p2343
I1
sS'hhy'
p2344
I1
sS'hhe'
p2345
I1
sS'fxu'
p2346
I2
sS'jqj'
p2347
I1
sS'ati'
p2348
I2
sS'tsi'
p2349
I4
sS'abc'
p2350
I1
sS'ryh'
p2351
I1
sS'ryi'
p2352
I2
sS'oyw'
p2353
I2
sS'oyu'
p2354
I10
sS'csf'
p2355
I1
sS'rya'
p2356
I1
sS'oyo'
p2357
I4
sS'oyi'
p2358
I5
sS'csz'
p2359
I8
sS'cst'
p2360
I2
sS'oya'
p2361
I4
sS'tle'
p2362
I1
sS'yxx'
p2363
I1
sS'qqf'
p2364
I1
sS'qqm'
p2365
I2
sS'yxp'
p2366
I1
sS'yxv'
p2367
I1
sS'qqj'
p2368
I3
sS'yxj'
p2369
I2
sS'uqj'
p2370
I1
sS'qqr'
p2371
I4
sS'yxc'
p2372
I1
sS'yxf'
p2373
I1
sS'bky'
p2374
I1
sS'yxd'
p2375
I1
sS'qqz'
p2376
I1
sS'lhe'
p2377
I1
sS'egs'
p2378
I10
sS'cxk'
p2379
I1
sS'egu'
p2380
I7
sS'lhv'
p2381
I1
sS'hfm'
p2382
I1
sS'egc'
p2383
I2
sS'itn'
p2384
I2
sS'ito'
p2385
I2
sS'itk'
p2386
I1
sS'iti'
p2387
I6
sS'ite'
p2388
I1
sS'itb'
p2389
I1
sS'ffq'
p2390
I6
sS'ita'
p2391
I1
sS'uvh'
p2392
I1
sS'uvi'
p2393
I3
sS'kfu'
p2394
I1
sS'ity'
p2395
I6
sS'itt'
p2396
I1
sS'uvc'
p2397
I3
sS'hzf'
p2398
I2
sS'hza'
p2399
I1
sS'hzo'
p2400
I1
sS'hzj'
p2401
I1
sS'hzt'
p2402
I1
sS'hzv'
p2403
I1
sS'pcn'
p2404
I14
sS'pco'
p2405
I12
sS'pcd'
p2406
I1
sS'pce'
p2407
I1
sS'okq'
p2408
I1
sS'rwa'
p2409
I1
sS'buu'
p2410
I1
sS'nhn'
p2411
I4
sS'ceb'
p2412
I1
sS'cea'
p2413
I1
sS'uha'
p2414
I4
sS'uhn'
p2415
I1
sS'uho'
p2416
I3
sS'cej'
p2417
I1
sS'ceh'
p2418
I1
sS'oka'
p2419
I7
sS'uhw'
p2420
I1
sS'uhu'
p2421
I4
sS'oke'
p2422
I3
sS'cep'
p2423
I2
sS'mao'
p2424
I1
sS'hxy'
p2425
I1
sS'cey'
p2426
I1
sS'ynl'
p2427
I1
sS'ifu'
p2428
I15
sS'kzf'
p2429
I1
sS'ifs'
p2430
I1
sS'ify'
p2431
I1
sS'ife'
p2432
I4
sS'ifa'
p2433
I5
sS'die'
p2434
I2
sS'ifh'
p2435
I5
sS'gfx'
p2436
I1
sS'gfy'
p2437
I1
sS'hex'
p2438
I11
sS'gfu'
p2439
I15
sS'jjg'
p2440
I2
sS'gfm'
p2441
I1
sS'gfb'
p2442
I1
sS'gfc'
p2443
I1
sS'gfa'
p2444
I7
sS'gfe'
p2445
I2
sS'ftp'
p2446
I1
sS'izc'
p2447
I3
sS'ize'
p2448
I3
sS'ftw'
p2449
I2
sS'izh'
p2450
I24
sS'ftx'
p2451
I10
sS'izl'
p2452
I1
sS'izn'
p2453
I1
sS'izo'
p2454
I1
sS'izu'
p2455
I1
sS'eer'
p2456
I11
sS'pum'
p2457
I1
sS'mmy'
p2458
I1
sS'asv'
p2459
I2
sS'puj'
p2460
I1
sS'puk'
p2461
I6
sS'pue'
p2462
I4
sS'asc'
p2463
I3
sS'sbc'
p2464
I1
sS'asa'
p2465
I2
sS'mmk'
p2466
I1
sS'asd'
p2467
I1
sS'put'
p2468
I2
sS'vxi'
p2469
I5
sS'asi'
p2470
I10
sS'ash'
p2471
I14
sS'zjm'
p2472
I1
sS'zji'
p2473
I1
sS'zjg'
p2474
I1
sS'zjc'
p2475
I4
sS'eqq'
p2476
I4
sS'wlj'
p2477
I1
sS'wlm'
p2478
I1
sS'wln'
p2479
I1
sS'wlb'
p2480
I1
sS'wlc'
p2481
I1
sS'zjp'
p2482
I2
sS'eqr'
p2483
I1
sS'dxy'
p2484
I1
sS'equ'
p2485
I1
sS'cfj'
p2486
I1
sS'xio'
p2487
I1
sS'eqi'
p2488
I3
sS'gph'
p2489
I6
sS'gpi'
p2490
I9
sS'vxk'
p2491
I3
sS'gpd'
p2492
I1
sS'gpa'
p2493
I2
sS'gpc'
p2494
I1
sS'dfo'
p2495
I2
sS'toi'
p2496
I1
sS'vxy'
p2497
I1
sS'ton'
p2498
I6
sS'dfa'
p2499
I3
sS'kov'
p2500
I1
sS'ncy'
p2501
I1
sS'xiw'
p2502
I1
sS'tfa'
p2503
I1
sS'qls'
p2504
I1
sS'nch'
p2505
I21
sS'qlo'
p2506
I1
sS'tfy'
p2507
I2
sS'ncn'
p2508
I40
sS'nco'
p2509
I19
sS'tfu'
p2510
I10
sS'ccy'
p2511
I1
sS'ncc'
p2512
I10
sS'nce'
p2513
I5
sS'std'
p2514
I10
sS'aad'
p2515
I1
sS'aaa'
p2516
I1
sS'sta'
p2517
I2
sS'aac'
p2518
I2
sS'stc'
p2519
I1
sS'kou'
p2520
I1
sS'sto'
p2521
I11
sS'sti'
p2522
I1
sS'aav'
p2523
I1
sS'dfb'
p2524
I7
sS'dtv'
p2525
I1
sS'dtu'
p2526
I1
sS'dtt'
p2527
I1
sS'bhh'
p2528
I1
sS'pcp'
p2529
I1
sS'qpl'
p2530
I1
sS'bhe'
p2531
I2
sS'elo'
p2532
I1
sS'jlc'
p2533
I2
sS'bhy'
p2534
I1
sS'bhx'
p2535
I2
sS'bhz'
p2536
I1
sS'qpr'
p2537
I1
sS'bhs'
p2538
I1
sS'zyi'
p2539
I3
sS'qpw'
p2540
I4
sS'bhv'
p2541
I4
sS'lie'
p2542
I2
sS'lig'
p2543
I4
sS'lia'
p2544
I37
sS'lib'
p2545
I1
sS'hgy'
p2546
I1
sS'lil'
p2547
I1
sS'lim'
p2548
I1
sS'lin'
p2549
I7
sS'lih'
p2550
I3
sS'efu'
p2551
I1
sS'lij'
p2552
I3
sS'lik'
p2553
I1
sS'lit'
p2554
I2
sS'liu'
p2555
I20
sS'liv'
p2556
I2
sS'liw'
p2557
I2
sS'hgj'
p2558
I1
sS'rrq'
p2559
I3
sS'lis'
p2560
I3
sS'efb'
p2561
I1
sS'efc'
p2562
I1
sS'efd'
p2563
I1
sS'hgc'
p2564
I7
sS'liz'
p2565
I5
sS'jsd'
p2566
I1
sS'kaf'
p2567
I13
sS'kae'
p2568
I1
sS'kai'
p2569
I30
sS'jso'
p2570
I1
sS'kao'
p2571
I1
sS'kan'
p2572
I1
sS'vnv'
p2573
I1
sS'rhj'
p2574
I1
sS'jsp'
p2575
I1
sS'kav'
p2576
I1
sS'kat'
p2577
I18
sS'spu'
p2578
I1
sS'kaz'
p2579
I1
sS'rhc'
p2580
I10
sS'wli'
p2581
I2
sS'rhg'
p2582
I1
sS'tpf'
p2583
I10
sS'exc'
p2584
I10
sS'nci'
p2585
I2
sS'qby'
p2586
I1
sS'tpl'
p2587
I1
sS'gin'
p2588
I11
sS'exi'
p2589
I15
sS'tpw'
p2590
I3
sS'qbb'
p2591
I2
sS'exu'
p2592
I2
sS'bzb'
p2593
I1
sS'tpp'
p2594
I2
sS'bzm'
p2595
I1
sS'gqe'
p2596
I2
sS'cde'
p2597
I1
sS'ojp'
p2598
I2
sS'rtm'
p2599
I20
sS'rto'
p2600
I2
sS'ojz'
p2601
I5
sS'rtu'
p2602
I2
sS'ojc'
p2603
I2
sS'nca'
p2604
I4
sS'ojo'
p2605
I2
sS'rty'
p2606
I9
sS'ugu'
p2607
I6
sS'rtz'
p2608
I1
sS'iey'
p2609
I7
sS'iez'
p2610
I4
sS'ies'
p2611
I4
sS'ier'
p2612
I2
sS'yhn'
p2613
I2
sS'bfm'
p2614
I2
sS'iev'
p2615
I1
sS'ymc'
p2616
I10
sS'iej'
p2617
I3
sS'bfw'
p2618
I2
sS'iel'
p2619
I1
sS'bfu'
p2620
I10
sS'ien'
p2621
I6
sS'ymi'
p2622
I1
sS'bfy'
p2623
I1
sS'ieb'
p2624
I1
sS'ieg'
p2625
I15
sS'hip'
p2626
I5
sS'hir'
p2627
I3
sS'his'
p2628
I4
sS'hit'
p2629
I6
sS'hix'
p2630
I1
sS'hiy'
p2631
I3
sS'hiz'
p2632
I7
sS'hib'
p2633
I12
sS'hic'
p2634
I1
sS'hid'
p2635
I5
sS'hif'
p2636
I1
sS'coc'
p2637
I1
sS'hij'
p2638
I12
sS'okt'
p2639
I1
sS'hil'
p2640
I2
sS'him'
p2641
I5
sS'crs'
p2642
I20
sS'rfp'
p2643
I3
sS'stb'
p2644
I9
sS'oxz'
p2645
I1
sS'oxt'
p2646
I1
sS'oxu'
p2647
I1
sS'oxi'
p2648
I8
sS'pvs'
p2649
I1
sS'aer'
p2650
I5
sS'art'
p2651
I4
sS'ser'
p2652
I1
sS'seq'
p2653
I3
sS'arc'
p2654
I4
sS'ard'
p2655
I1
sS'are'
p2656
I2
sS'pvi'
p2657
I3
sS'ozb'
p2658
I1
sS'ark'
p2659
I1
sS'arl'
p2660
I1
sS'aro'
p2661
I2
sS'oza'
p2662
I3
sS'zkc'
p2663
I1
sS'wom'
p2664
I10
sS'wod'
p2665
I1
sS'woa'
p2666
I1
sS'nzf'
p2667
I10
sS'ikv'
p2668
I1
sS'iku'
p2669
I7
sS'ikt'
p2670
I1
sS'fhs'
p2671
I10
sS'uus'
p2672
I1
sS'ikc'
p2673
I8
sS'ikb'
p2674
I1
sS'ika'
p2675
I30
sS'skv'
p2676
I1
sS'len'
p2677
I2
sS'gej'
p2678
I1
sS'uuf'
p2679
I2
sS'nzi'
p2680
I5
sS'hkj'
p2681
I1
sS'dtp'
p2682
I1
sS'pdu'
p2683
I1
sS'pds'
p2684
I1
sS'rrr'
p2685
I1
sS'pdo'
p2686
I2
sS'les'
p2687
I1
sS'gma'
p2688
I11
sS'utz'
p2689
I1
sS'wen'
p2690
I13
sS'tgf'
p2691
I1
sS'hkc'
p2692
I1
sS'dui'
p2693
I1
sS'duk'
p2694
I6
sS'dul'
p2695
I2
sS'dun'
p2696
I4
sS'duo'
p2697
I14
sS'swa'
p2698
I1
sS'dua'
p2699
I1
sS'dub'
p2700
I9
sS'duc'
p2701
I37
sS'due'
p2702
I1
sS'imu'
p2703
I1
sS'dux'
p2704
I4
sS'duy'
p2705
I2
sS'xam'
p2706
I2
sS'duq'
p2707
I3
sS'dut'
p2708
I1
sS'duv'
p2709
I1
sS'duw'
p2710
I1
sS'nrb'
p2711
I1
sS'gas'
p2712
I1
sS'nre'
p2713
I2
sS'gao'
p2714
I10
sS'gan'
p2715
I6
sS'gam'
p2716
I3
sS'gal'
p2717
I1
sS'gab'
p2718
I1
sS'gaa'
p2719
I1
sS'nrt'
p2720
I6
sS'iye'
p2721
I5
sS'fuw'
p2722
I3
sS'iya'
p2723
I27
sS'fus'
p2724
I18
sS'fup'
p2725
I18
sS'iym'
p2726
I10
sS'mlh'
p2727
I1
sS'iyi'
p2728
I20
sS'fux'
p2729
I9
sS'fuy'
p2730
I1
sS'iyu'
p2731
I59
sS'fug'
p2732
I4
sS'ced'
p2733
I1
sS'qpy'
p2734
I1
sS'fub'
p2735
I1
sS'fuc'
p2736
I12
sS'shg'
p2737
I1
sS'dqk'
p2738
I1
sS'fuh'
p2739
I2
sS'jpl'
p2740
I1
sS'riv'
p2741
I5
sS'rit'
p2742
I1
sS'jpb'
p2743
I10
sS'rir'
p2744
I1
sS'rin'
p2745
I1
sS'eka'
p2746
I2
sS'rib'
p2747
I2
sS'sai'
p2748
I1
sS'ewj'
p2749
I5
sS'ewi'
p2750
I1
sS'ewh'
p2751
I5
sS'qap'
p2752
I1
sS'ewc'
p2753
I1
sS'ewa'
p2754
I6
sS'qay'
p2755
I1
sS'ewe'
p2756
I2
sS'tqu'
p2757
I1
sS'ewx'
p2758
I4
sS'tqp'
p2759
I3
sS'ews'
p2760
I1
sS'ewp'
p2761
I1
sS'tqz'
p2762
I1
sS'lxu'
p2763
I1
sS'eky'
p2764
I1
sS'syl'
p2765
I8
sS'syw'
p2766
I1
sS'dgz'
p2767
I1
sS'vgh'
p2768
I1
sS'dgy'
p2769
I10
sS'gss'
p2770
I10
sS'vbx'
p2771
I1
sS'gsu'
p2772
I8
sS'hgx'
p2773
I6
sS'vyx'
p2774
I1
sS'jby'
p2775
I1
sS'kna'
p2776
I1
sS'gsa'
p2777
I6
sS'hgv'
p2778
I1
sS'gsc'
p2779
I11
sS'gse'
p2780
I3
sS'jbb'
p2781
I1
sS'gsg'
p2782
I1
sS'gsi'
p2783
I3
sS'gsh'
p2784
I40
sS'jbm'
p2785
I1
sS'gsm'
p2786
I1
sS'ldb'
p2787
I2
sS'hjp'
p2788
I1
sS'ipt'
p2789
I1
sS'hjg'
p2790
I2
sS'hjf'
p2791
I1
sS'gqs'
p2792
I1
sS'cuw'
p2793
I1
sS'ipe'
p2794
I1
sS'cux'
p2795
I1
sS'rgc'
p2796
I20
sS'rgh'
p2797
I1
sS'cun'
p2798
I5
sS'cul'
p2799
I1
sS'rgm'
p2800
I1
sS'bin'
p2801
I7
sS'qwn'
p2802
I1
sS'bil'
p2803
I2
sS'qwk'
p2804
I2
sS'qwj'
p2805
I1
sS'bif'
p2806
I1
sS'bid'
p2807
I1
sS'qwc'
p2808
I2
sS'bic'
p2809
I5
sS'qwa'
p2810
I1
sS'bia'
p2811
I2
sS'biz'
p2812
I14
sS'pxu'
p2813
I1
sS'biy'
p2814
I5
sS'biw'
p2815
I1
sS'bis'
p2816
I1
sS'lji'
p2817
I1
sS'aeb'
p2818
I2
sS'ljc'
p2819
I1
sS'efe'
p2820
I2
sS'ljy'
p2821
I9
sS'eel'
p2822
I2
sS'apo'
p2823
I1
sS'mhe'
p2824
I2
sS'iju'
p2825
I1
sS'ijy'
p2826
I1
sS'ohe'
p2827
I6
sS'cns'
p2828
I1
sS'ijc'
p2829
I4
sS'ijd'
p2830
I1
sS'fbj'
p2831
I1
sS'bsx'
p2832
I5
sS'vjj'
p2833
I1
sS'ijo'
p2834
I1
sS'iar'
p2835
I2
sS'iji'
p2836
I58
sS'pei'
p2837
I2
sS'jsn'
p2838
I1
sS'ufh'
p2839
I1
sS'kah'
p2840
I21
sS'ruo'
p2841
I1
sS'zzy'
p2842
I3
sS'rum'
p2843
I1
sS'ufa'
p2844
I3
sS'cgc'
p2845
I1
sS'rua'
p2846
I3
sS'ufd'
p2847
I14
sS'ufe'
p2848
I2
sS'cgf'
p2849
I1
sS'ruz'
p2850
I1
sS'ufy'
p2851
I1
sS'kiz'
p2852
I1
sS'usd'
p2853
I8
sS'oeb'
p2854
I1
sS'tyc'
p2855
I8
sS'oef'
p2856
I1
sS'zis'
p2857
I1
sS'gua'
p2858
I31
sS'bgj'
p2859
I1
sS'idu'
p2860
I14
sS'ido'
p2861
I1
sS'idl'
p2862
I1
sS'kap'
p2863
I1
sS'ylc'
p2864
I40
sS'idi'
p2865
I7
sS'bgy'
p2866
I3
sS'idd'
p2867
I1
sS'ide'
p2868
I6
sS'ida'
p2869
I18
sS'nsh'
p2870
I44
sS'nsi'
p2871
I1
sS'chk'
p2872
I1
sS'nsn'
p2873
I1
sS'nso'
p2874
I4
sS'bsd'
p2875
I2
sS'chn'
p2876
I1
sS'nsp'
p2877
I1
sS'nsr'
p2878
I3
sS'ush'
p2879
I22
sS'nsu'
p2880
I1
sS'usw'
p2881
I1
sS'ixi'
p2882
I26
sS'mka'
p2883
I1
sS'xpl'
p2884
I1
sS'xpb'
p2885
I1
sS'mks'
p2886
I1
sS'fzb'
p2887
I10
sS'fze'
p2888
I1
sS'ixu'
p2889
I2
sS'sdw'
p2890
I10
sS'sdp'
p2891
I1
sS'pwp'
p2892
I1
sS'sds'
p2893
I1
sS'wnj'
p2894
I2
sS'wno'
p2895
I1
sS'sdz'
p2896
I21
sS'sdf'
p2897
I2
sS'pwe'
p2898
I1
sS'sda'
p2899
I7
sS'sdb'
p2900
I1
sS'pwa'
p2901
I1
sS'sdl'
p2902
I5
sS'pwo'
p2903
I2
sS'pwl'
p2904
I1
sS'pwm'
p2905
I1
sS'aqi'
p2906
I1
sS'sdj'
p2907
I1
sS'utb'
p2908
I1
sS'uta'
p2909
I3
sS'zhu'
p2910
I46
sS'fdi'
p2911
I2
sS'fdh'
p2912
I1
sS'fdk'
p2913
I1
sS'exa'
p2914
I1
sS'uto'
p2915
I3
sS'utl'
p2916
I1
sS'zha'
p2917
I15
sS'ciw'
p2918
I1
sS'fdw'
p2919
I1
sS'fdv'
p2920
I2
sS'zhi'
p2921
I20
sS'fdx'
p2922
I1
sS'ciy'
p2923
I1
sS'uty'
p2924
I8
sS'zho'
p2925
I42
sS'lyu'
p2926
I1
sS'sxc'
p2927
I10
sS'lyq'
p2928
I1
sS'sxi'
p2929
I2
sS'sxk'
p2930
I3
sS'jlm'
p2931
I1
sS'sxu'
p2932
I1
sS'sxz'
p2933
I1
sS'obo'
p2934
I4
sS'lyj'
p2935
I1
sS'gru'
p2936
I2
sS'grr'
p2937
I2
sS'nag'
p2938
I1
sS'jcr'
p2939
I20
sS'nae'
p2940
I3
sS'nai'
p2941
I3
sS'nan'
p2942
I36
sS'nao'
p2943
I2
sS'nal'
p2944
I13
sS'nam'
p2945
I2
sS'kqc'
p2946
I2
sS'gre'
p2947
I13
sS'grb'
p2948
I2
sS'naw'
p2949
I1
sS'jcl'
p2950
I1
sS'jcn'
p2951
I11
sS'jco'
p2952
I4
sS'jcj'
p2953
I1
sS'czm'
p2954
I1
sS'hbc'
p2955
I10
sS'qbj'
p2956
I1
sS'dvi'
p2957
I7
sS'xbx'
p2958
I1
sS'svi'
p2959
I2
sS'agg'
p2960
I2
sS'age'
p2961
I5
sS'xbs'
p2962
I1
sS'bzj'
p2963
I2
sS'agx'
p2964
I1
sS'agu'
p2965
I3
sS'xbc'
p2966
I2
sS'xbb'
p2967
I1
sS'eda'
p2968
I2
sS'edf'
p2969
I10
sS'edh'
p2970
I2
sS'jge'
p2971
I2
sS'edq'
p2972
I1
sS'edv'
p2973
I4
sS'edt'
p2974
I2
sS'iqx'
p2975
I1
sS'edz'
p2976
I1
sS'bvi'
p2977
I3
sS'edy'
p2978
I1
sS'vub'
p2979
I1
sS'lkh'
p2980
I1
sS'ego'
p2981
I11
sS'djp'
p2982
I20
sS'esc'
p2983
I1
sS'uga'
p2984
I1
sS'yqw'
p2985
I2
sS'vli'
p2986
I1
sS'vlh'
p2987
I1
sS'kca'
p2988
I1
sS'kcl'
p2989
I1
sS'kco'
p2990
I12
sS'kcn'
p2991
I5
sS'kch'
p2992
I2
sS'dda'
p2993
I1
sS'vlv'
p2994
I1
sS'bxy'
p2995
I10
sS'evi'
p2996
I1
sS'bxz'
p2997
I1
sS'gvt'
p2998
I1
sS'car'
p2999
I1
sS'trp'
p3000
I1
sS'evs'
p3001
I3
sS'mos'
p3002
I1
sS'rtp'
p3003
I1
sS'rrm'
p3004
I1
sS'uei'
p3005
I4
sS'nmw'
p3006
I1
sS'cfb'
p3007
I1
sS'odu'
p3008
I2
sS'ueb'
p3009
I1
sS'odh'
p3010
I1
sS'odi'
p3011
I4
sS'uzz'
p3012
I2
sS'oda'
p3013
I6
sS'uew'
p3014
I2
sS'ode'
p3015
I8
sS'cfp'
p3016
I1
sS'uer'
p3017
I3
sS'bde'
p3018
I10
sS'yjp'
p3019
I2
sS'ufu'
p3020
I2
sS'bdc'
p3021
I2
sS'ycs'
p3022
I1
sS'uwu'
p3023
I5
sS'cit'
p3024
I6
sS'yco'
p3025
I39
sS'ycn'
p3026
I6
sS'oji'
p3027
I34
sS'bdx'
p3028
I2
sS'leb'
p3029
I7
sS'lec'
p3030
I85
sS'led'
p3031
I5
sS'leg'
p3032
I1
sS'leh'
p3033
I2
sS'lei'
p3034
I10
sS'lej'
p3035
I8
sS'lek'
p3036
I2
sS'lel'
p3037
I3
sS'lem'
p3038
I2
sS'ozh'
p3039
I8
sS'ozi'
p3040
I1
sS'lep'
p3041
I3
sS'leq'
p3042
I1
sS'ler'
p3043
I1
sS'ozu'
p3044
I2
sS'let'
p3045
I5
sS'lev'
p3046
I2
sS'lew'
p3047
I1
sS'lex'
p3048
I2
sS'ley'
p3049
I5
sS'lez'
p3050
I1
sS'rdu'
p3051
I1
sS'ctp'
p3052
I1
sS'rds'
p3053
I1
sS'vbk'
p3054
I1
sS'vbj'
p3055
I1
sS'vbi'
p3056
I3
sS'wzy'
p3057
I1
sS'rda'
p3058
I1
sS'rdb'
p3059
I1
sS'ctn'
p3060
I2
sS'cad'
p3061
I1
sS'wie'
p3062
I1
sS'bfh'
p3063
I1
sS'wic'
p3064
I1
sS'fak'
p3065
I1
sS'spy'
p3066
I2
sS'apr'
p3067
I10
sS'win'
p3068
I7
sS'app'
p3069
I1
sS'apv'
p3070
I2
sS'apw'
p3071
I3
sS'apt'
p3072
I3
sS'pxi'
p3073
I1
sS'api'
p3074
I8
sS'sgm'
p3075
I1
sS'iew'
p3076
I5
sS'apl'
p3077
I1
sS'apc'
p3078
I1
sS'sgc'
p3079
I1
sS'apa'
p3080
I1
sS'cha'
p3081
I50
sS'use'
p3082
I1
sS'ziu'
p3083
I1
sS'usc'
p3084
I20
sS'che'
p3085
I116
sS'chh'
p3086
I1
sS'chi'
p3087
I1
sS'fel'
p3088
I1
sS'usl'
p3089
I2
sS'usi'
p3090
I4
sS'fei'
p3091
I13
sS'fev'
p3092
I1
sS'zig'
p3093
I3
sS'usu'
p3094
I2
sS'chs'
p3095
I1
sS'zib'
p3096
I1
sS'chu'
p3097
I16
sS'usp'
p3098
I1
sS'zij'
p3099
I2
sS'usz'
p3100
I1
sS'fey'
p3101
I1
sS'pfc'
p3102
I3
sS'vps'
p3103
I1
sS'jky'
p3104
I1
sS'qcs'
p3105
I1
sS'iid'
p3106
I1
sS'iio'
p3107
I1
sS'pfz'
p3108
I11
sS'bfx'
p3109
I1
sS'ayb'
p3110
I1
sS'tat'
p3111
I1
sS'shs'
p3112
I1
sS'tar'
p3113
I1
sS'xcn'
p3114
I4
sS'xco'
p3115
I42
sS'tan'
p3116
I9
sS'tao'
p3117
I11
sS'tai'
p3118
I24
sS'gca'
p3119
I6
sS'afm'
p3120
I9
sS'sip'
p3121
I2
sS'siw'
p3122
I4
sS'gcg'
p3123
I1
sS'sit'
p3124
I2
sS'gci'
p3125
I2
sS'siz'
p3126
I2
sS'afa'
p3127
I2
sS'gco'
p3128
I42
sS'gcn'
p3129
I78
sS'sic'
p3130
I12
sS'dwc'
p3131
I1
sS'dwa'
p3132
I4
sS'afy'
p3133
I1
sS'sie'
p3134
I2
sS'gcy'
p3135
I1
sS'gcx'
p3136
I1
sS'gcz'
p3137
I1
sS'sin'
p3138
I7
sS'sim'
p3139
I1
sS'sil'
p3140
I1
sS'npi'
p3141
I8
sS'sir'
p3142
I1
sS'fuf'
p3143
I1
sS'fab'
p3144
I1
sS'gce'
p3145
I1
sS'npw'
p3146
I1
sS'npr'
p3147
I1
sS'mjc'
p3148
I2
sS'mji'
p3149
I1
sS'mjp'
p3150
I1
sS'gch'
p3151
I20
sS'xqp'
p3152
I1
sS'vml'
p3153
I1
sS'kbl'
p3154
I1
sS'bjf'
p3155
I2
sS'ens'
p3156
I1
sS'byz'
p3157
I1
sS'sib'
p3158
I1
sS'tsf'
p3159
I6
sS'byq'
p3160
I7
sS'byf'
p3161
I1
sS'tsw'
p3162
I1
sS'byd'
p3163
I1
sS'tsu'
p3164
I1
sS'gct'
p3165
I1
sS'dad'
p3166
I10
sS'daf'
p3167
I4
sS'dag'
p3168
I1
sS'owa'
p3169
I6
sS'dan'
p3170
I4
sS'dao'
p3171
I7
sS'dah'
p3172
I3
sS'dai'
p3173
I44
sS'daj'
p3174
I1
sS'dat'
p3175
I1
sS'dau'
p3176
I1
sS'lzk'
p3177
I1
sS'dar'
p3178
I4
sS'afu'
p3179
I3
sS'say'
p3180
I6
sS'dax'
p3181
I2
sS'day'
p3182
I3
sS'daz'
p3183
I8
sS'oxy'
p3184
I1
sS'wiq'
p3185
I1
sS'nfa'
p3186
I6
sS'zat'
p3187
I1
sS'nfk'
p3188
I10
sS'uhe'
p3189
I18
sS'kpg'
p3190
I1
sS'kph'
p3191
I1
sS'afs'
p3192
I5
sS'ouj'
p3193
I3
sS'ouh'
p3194
I4
sS'oun'
p3195
I1
sS'oum'
p3196
I3
sS'map'
p3197
I2
sS'ouc'
p3198
I15
sS'oub'
p3199
I14
sS'mas'
p3200
I2
sS'lfk'
p3201
I5
sS'oud'
p3202
I10
sS'ouz'
p3203
I10
sS'ouy'
p3204
I5
sS'oux'
p3205
I24
sS'ous'
p3206
I13
sS'ouq'
p3207
I5
sS'oup'
p3208
I9
sS'ouw'
p3209
I4
sS'aob'
p3210
I10
sS'res'
p3211
I11
sS'cwt'
p3212
I2
sS'vcn'
p3213
I3
sS'reh'
p3214
I2
sS'rei'
p3215
I2
sS'ren'
p3216
I17
sS'rel'
p3217
I1
sS'pqi'
p3218
I20
sS'cwa'
p3219
I2
sS'lob'
p3220
I1
sS'ece'
p3221
I1
sS'maz'
p3222
I1
sS'eca'
p3223
I17
sS'eco'
p3224
I46
sS'ecn'
p3225
I3
sS'ech'
p3226
I101
sS'qua'
p3227
I10
sS'bwa'
p3228
I1
sS'hew'
p3229
I6
sS'que'
p3230
I1
sS'quf'
p3231
I1
sS'bwj'
p3232
I1
sS'qun'
p3233
I3
sS'xze'
p3234
I1
sS'ltp'
p3235
I1
sS'ltu'
p3236
I3
sS'gmi'
p3237
I2
sS'gwy'
p3238
I1
sS'ltj'
p3239
I7
sS'mad'
p3240
I1
sS'jzd'
p3241
I17
sS'aoq'
p3242
I4
sS'pga'
p3243
I1
sS'ehz'
p3244
I2
sS'ihu'
p3245
I10
sS'sof'
p3246
I2
sS'mai'
p3247
I24
sS'pgu'
p3248
I1
sS'ihn'
p3249
I3
sS'iho'
p3250
I3
sS'ihc'
p3251
I3
sS'iha'
p3252
I7
sS'ihg'
p3253
I6
sS'ihe'
p3254
I2
sS'yrx'
p3255
I1
sS'zxh'
p3256
I3
sS'mal'
p3257
I1
sS'zxs'
p3258
I10
sS'zxt'
p3259
I1
sS'zxz'
p3260
I1
sS'rsl'
p3261
I1
sS'cyq'
p3262
I2
sS'rsj'
p3263
I1
sS'cyt'
p3264
I1
sS'rsd'
p3265
I20
sS'lou'
p3266
I2
sS'ogs'
p3267
I7
sS'cyc'
p3268
I2
sS'loz'
p3269
I1
sS'ogo'
p3270
I2
sS'uda'
p3271
I7
sS'eql'
p3272
I1
sS'eho'
p3273
I2
sS'rst'
p3274
I1
sS'udi'
p3275
I8
sS'udo'
p3276
I2
sS'ogc'
p3277
I1
sS'ybx'
p3278
I1
sS'yby'
p3279
I1
sS'ybz'
p3280
I2
sS'bei'
p3281
I8
sS'ben'
p3282
I3
sS'uzf'
p3283
I1
sS'bed'
p3284
I7
sS'gzo'
p3285
I2
sS'ber'
p3286
I1
sS'utf'
p3287
I1
sS'ybc'
p3288
I1
sS'ybd'
p3289
I1
sS'bet'
p3290
I6
sS'nqs'
p3291
I1
sS'nqq'
p3292
I1
sS'nqu'
p3293
I2
sS'nqx'
p3294
I1
sS'bux'
p3295
I3
sS'nqf'
p3296
I3
sS'znm'
p3297
I1
sS'ari'
p3298
I5
sS'nqi'
p3299
I19
sS'nqm'
p3300
I1
sS'mik'
p3301
I20
sS'min'
p3302
I29
sS'mia'
p3303
I6
sS'sek'
p3304
I1
sS'mie'
p3305
I1
sS'mid'
p3306
I15
sS'fxs'
p3307
I1
sS'miy'
p3308
I1
sS'itu'
p3309
I5
sS'whe'
p3310
I1
sS'whg'
p3311
I3
sS'wha'
p3312
I2
sS'mut'
p3313
I1
sS'aww'
p3314
I1
sS'sfu'
p3315
I1
sS'pyt'
p3316
I1
sS'whk'
p3317
I5
sS'pyi'
p3318
I1
sS'pyl'
p3319
I1
sS'eag'
p3320
I1
sS'awi'
p3321
I3
sS'sfi'
p3322
I6
sS'pya'
p3323
I2
sS'pyb'
p3324
I1
sS'pyc'
p3325
I21
sS'pyf'
p3326
I1
sS'cke'
p3327
I1
sS'ure'
p3328
I2
sS'zfy'
p3329
I3
sS'ckc'
p3330
I1
sS'zfs'
p3331
I10
sS'uro'
p3332
I10
sS'zfu'
p3333
I1
sS'urv'
p3334
I1
sS'zfm'
p3335
I2
sS'kji'
p3336
I1
sS'iyt'
p3337
I1
sS'cky'
p3338
I1
sS'ury'
p3339
I1
sS'dbh'
p3340
I1
sS'aba'
p3341
I1
sS'dbj'
p3342
I1
sS'szn'
p3343
I8
sS'szl'
p3344
I1
sS'szb'
p3345
I1
sS'szc'
p3346
I2
sS'dbc'
p3347
I1
sS'szd'
p3348
I1
sS'dbf'
p3349
I1
sS'dby'
p3350
I2
sS'szx'
p3351
I1
sS'szs'
p3352
I1
sS'dbs'
p3353
I2
sS'ngd'
p3354
I33
sS'nge'
p3355
I15
sS'ngf'
p3356
I25
sS'ngg'
p3357
I30
sS'npu'
p3358
I2
sS'nga'
p3359
I8
sS'kss'
p3360
I1
sS'ngc'
p3361
I117
sS'ngl'
p3362
I80
sS'ngm'
p3363
I13
sS'ngn'
p3364
I9
sS'ngo'
p3365
I25
sS'jar'
p3366
I1
sS'ngi'
p3367
I10
sS'ngj'
p3368
I74
sS'ngk'
p3369
I50
sS'ngt'
p3370
I18
sS'ngu'
p3371
I11
sS'ngv'
p3372
I4
sS'ngw'
p3373
I20
sS'ngp'
p3374
I17
sS'ngq'
p3375
I30
sS'ngr'
p3376
I20
sS'ngs'
p3377
I54
sS'ngx'
p3378
I37
sS'jac'
p3379
I1
sS'ngz'
p3380
I41
sS'tbx'
p3381
I2
sS'mga'
p3382
I1
sS'ttp'
p3383
I2
sS'tbs'
p3384
I1
sS'lsk'
p3385
I1
sS'xdq'
p3386
I1
sS'mgt'
p3387
I1
sS'tba'
p3388
I9
sS'mgy'
p3389
I1
sS'tbb'
p3390
I1
sS'dpw'
p3391
I6
sS'gbd'
p3392
I1
sS'gbe'
p3393
I2
sS'sht'
p3394
I1
sS'shu'
p3395
I15
sS'aew'
p3396
I1
sS'gba'
p3397
I16
sS'gbo'
p3398
I2
sS'shz'
p3399
I1
sS'gbj'
p3400
I3
sS'dpz'
p3401
I1
sS'gbi'
p3402
I2
sS'aea'
p3403
I2
sS'sha'
p3404
I35
sS'gbt'
p3405
I3
sS'gbu'
p3406
I1
sS'she'
p3407
I49
sS'aef'
p3408
I2
sS'aei'
p3409
I2
sS'shi'
p3410
I46
sS'shn'
p3411
I1
sS'sho'
p3412
I25
sS'btu'
p3413
I1
sS'ebe'
p3414
I4
sS'btv'
p3415
I1
sS'btp'
p3416
I1
sS'bts'
p3417
I6
sS'qtq'
p3418
I3
sS'ebm'
p3419
I1
sS'ebo'
p3420
I5
sS'bty'
p3421
I1
sS'ebi'
p3422
I1
sS'btz'
p3423
I1
sS'ebu'
p3424
I1
sS'jpy'
p3425
I21
sS'qtb'
p3426
I1
sS'eby'
p3427
I1
sS'lur'
p3428
I10
sS'dlg'
p3429
I1
sS'dlf'
p3430
I5
sS'luv'
p3431
I2
sS'lux'
p3432
I1
sS'dli'
p3433
I1
sS'dls'
p3434
I1
sS'omk'
p3435
I1
sS'lud'
p3436
I1
sS'lip'
p3437
I3
sS'lun'
p3438
I7
sS'luo'
p3439
I4
sS'jif'
p3440
I1
sS'jot'
p3441
I11
sS'kej'
p3442
I5
sS'jig'
p3443
I4
sS'kef'
p3444
I1
sS'joz'
p3445
I1
sS'ked'
p3446
I2
sS'kec'
p3447
I2
sS'key'
p3448
I1
sS'kex'
p3449
I3
sS'kew'
p3450
I2
sS'qxy'
p3451
I1
sS'joj'
p3452
I1
sS'kes'
p3453
I2
sS'ker'
p3454
I1
sS'jic'
p3455
I4
sS'tls'
p3456
I1
sS'qfy'
p3457
I1
sS'etu'
p3458
I1
sS'etz'
p3459
I1
sS'tlz'
p3460
I1
sS'ety'
p3461
I2
sS'etc'
p3462
I10
sS'eta'
p3463
I1
sS'etd'
p3464
I1
sS'jio'
p3465
I10
sS'etj'
p3466
I1
sS'omw'
p3467
I1
sS'tli'
p3468
I1
sS'eti'
p3469
I1
sS'eto'
p3470
I4
sS'ucu'
p3471
I5
sS'ike'
p3472
I1
sS'ucq'
p3473
I1
sS'rpx'
p3474
I2
sS'hod'
p3475
I1
sS'uce'
p3476
I14
sS'cxc'
p3477
I1
sS'rpg'
p3478
I1
sS'uco'
p3479
I55
sS'ucn'
p3480
I22
sS'gto'
p3481
I1
sS'ucj'
p3482
I1
sS'uci'
p3483
I1
sS'uid'
p3484
I2
sS'gtp'
p3485
I1
sS'bbj'
p3486
I1
sS'yaz'
p3487
I7
sS'bbf'
p3488
I2
sS'yaw'
p3489
I1
sS'yap'
p3490
I11
sS'yas'
p3491
I10
sS'int'
p3492
I7
sS'yao'
p3493
I2
sS'yan'
p3494
I67
sS'bbx'
p3495
I3
sS'yae'
p3496
I2
sS'bbu'
p3497
I1
sS'yaf'
p3498
I1
sS'bbs'
p3499
I6
sS'cbh'
p3500
I1
sS'yac'
p3501
I1
sS'jis'
p3502
I4
sS'lgj'
p3503
I1
sS'inw'
p3504
I7
sS'llj'
p3505
I1
sS'jip'
p3506
I1
sS'otn'
p3507
I10
sS'oto'
p3508
I5
sS'ota'
p3509
I1
sS'jiq'
p3510
I4
sS'ote'
p3511
I1
sS'pie'
p3512
I1
sS'uns'
p3513
I4
sS'gog'
p3514
I1
sS'otu'
p3515
I2
sS'otw'
p3516
I10
sS'pix'
p3517
I2
sS'ysm'
p3518
I5
sS'hoc'
p3519
I1
sS'rbt'
p3520
I1
sS'dxu'
p3521
I2
sS'rbi'
p3522
I2
sS'rbc'
p3523
I3
sS'ill'
p3524
I1
sS'pzx'
p3525
I10
sS'wkc'
p3526
I2
sS'wke'
p3527
I1
sS'pzm'
p3528
I1
sS'cbz'
p3529
I1
sS'avi'
p3530
I1
sS'avj'
p3531
I1
sS'ohu'
p3532
I1
sS'ave'
p3533
I1
sS'avf'
p3534
I1
sS'wkt'
p3535
I9
sS'noi'
p3536
I2
sS'zgx'
p3537
I1
sS'zzb'
p3538
I1
sS'cji'
p3539
I1
sS'glv'
p3540
I2
sS'fkc'
p3541
I5
sS'cjg'
p3542
I1
sS'cjd'
p3543
I1
sS'uqy'
p3544
I1
sS'uqx'
p3545
I1
sS'unc'
p3546
I7
sS'uaf'
p3547
I1
sS'fkr'
p3548
I10
sS'uqu'
p3549
I4
sS'cjt'
p3550
I1
sS'pho'
p3551
I10
sS'mzs'
p3552
I1
sS'liy'
p3553
I23
sS'iou'
p3554
I10
sS'ios'
p3555
I1
sS'ion'
p3556
I2
sS'ioh'
p3557
I1
sS'jfa'
p3558
I2
sS'ioe'
p3559
I1
sS'cok'
p3560
I1
sS'phu'
p3561
I1
sS'wyu'
p3562
I1
sS'ofa'
p3563
I2
sS'zyc'
p3564
I1
sS'ofe'
p3565
I1
sS'unl'
p3566
I2
sS'zyk'
p3567
I1
sS'ofm'
p3568
I1
sS'wyf'
p3569
I1
sS'wyc'
p3570
I1
sS'log'
p3571
I6
sS'oft'
p3572
I2
sS'ofu'
p3573
I4
sS'wyo'
p3574
I1
sS'ofx'
p3575
I1
sS'wyi'
p3576
I4
sS'fcb'
p3577
I2
sS'xea'
p3578
I1
sS'tcy'
p3579
I2
sS'tcw'
p3580
I2
sS'das'
p3581
I2
sS'bes'
p3582
I1
sS'tcn'
p3583
I1
sS'tco'
p3584
I11
sS'mfu'
p3585
I1
sS'mfy'
p3586
I10
sS'xey'
p3587
I1
sS'wea'
p3588
I1
sS'tjz'
p3589
I8
sS'dqp'
p3590
I2
sS'dqq'
p3591
I1
sS'wei'
p3592
I12
sS'sky'
p3593
I1
sS'gmf'
p3594
I1
sS'gme'
p3595
I1
sS'dqd'
p3596
I1
sS'dqe'
p3597
I10
sS'gmy'
p3598
I1
sS'ade'
p3599
I4
sS'adb'
p3600
I1
sS'adc'
p3601
I12
sS'dqb'
p3602
I1
sS'ada'
p3603
I2
sS'ado'
p3604
I1
sS'wex'
p3605
I10
sS'adh'
p3606
I4
sS'adi'
p3607
I3
sS'hvq'
p3608
I1
sS'fya'
p3609
I20
sS'nvs'
p3610
I2
sS'beq'
p3611
I1
sS'nfe'
p3612
I7
sS'fyl'
p3613
I3
sS'nvx'
p3614
I3
sS'fyq'
p3615
I1
sS'tay'
p3616
I2
sS'ngh'
p3617
I32
sS'nvi'
p3618
I5
sS'nvh'
p3619
I1
sS'mhl'
p3620
I1
sS'xsz'
p3621
I1
sS'xsy'
p3622
I7
sS'wxi'
p3623
I2
sS'xsc'
p3624
I10
sS'edu'
p3625
I34
sS'xsh'
p3626
I1
sS'mhs'
p3627
I1
sS'vsp'
p3628
I1
sS'jlt'
p3629
I3
sS'qec'
p3630
I13
sS'vst'
p3631
I10
sS'vsu'
p3632
I1
sS'njk'
p3633
I1
sS'njj'
p3634
I1
sS'nji'
p3635
I37
sS'kdg'
p3636
I10
sS'qet'
p3637
I1
sS'nju'
p3638
I2
sS'vsg'
p3639
I1
sS'vsh'
p3640
I2
sS'njz'
p3641
I1
sS'njx'
p3642
I1
sS'jlj'
p3643
I1
sS'esu'
p3644
I2
sS'est'
p3645
I1
sS'ess'
p3646
I11
sS'tmw'
p3647
I2
sS'tmx'
p3648
I1
sS'nfu'
p3649
I2
sS'esy'
p3650
I1
sS'esd'
p3651
I1
sS'fch'
p3652
I1
sS'esa'
p3653
I2
sS'eso'
p3654
I12
sS'tmi'
p3655
I20
sS'tmm'
p3656
I1
sS'esh'
p3657
I6
sS'dcn'
p3658
I9
sS'dco'
p3659
I22
sS'dcb'
p3660
I4
sS'swj'
p3661
I1
sS'ndi'
p3662
I5
sS'ndk'
p3663
I1
sS'swo'
p3664
I1
sS'ndo'
p3665
I2
sS'nda'
p3666
I20
sS'nde'
p3667
I14
sS'hot'
p3668
I1
sS'krh'
p3669
I10
sS'qfu'
p3670
I1
sS'nds'
p3671
I1
sS'ndu'
p3672
I15
sS'swc'
p3673
I20
sS'owi'
p3674
I1
sS'owe'
p3675
I10
sS'jhc'
p3676
I10
sS'owc'
p3677
I1
sS'owy'
p3678
I1
sS'oww'
p3679
I2
sS'dil'
p3680
I1
sS'jzj'
p3681
I4
sS'val'
p3682
I1
sS'wew'
p3683
I1
sS'hor'
p3684
I1
sS'vaf'
p3685
I1
sS'rcl'
p3686
I1
sS'rcn'
p3687
I12
sS'rco'
p3688
I4
sS'hlv'
p3689
I1
sS'yrw'
p3690
I1
sS'eai'
p3691
I1
sS'uss'
p3692
I10
sS'buy'
p3693
I2
sS'eal'
p3694
I1
sS'ean'
p3695
I2
sS'xum'
p3696
I1
sS'buw'
p3697
I2
sS'enq'
p3698
I4
sS'ouf'
p3699
I6
sS'buh'
p3700
I2
sS'chb'
p3701
I10
sS'oue'
p3702
I1
sS'afe'
p3703
I1
sS'bud'
p3704
I2
sS'lvs'
p3705
I1
sS'fcn'
p3706
I2
sS'dmi'
p3707
I1
sS'dmj'
p3708
I1
sS'lvd'
p3709
I2
sS'lvf'
p3710
I1
sS'dmt'
p3711
I1
sS'lvb'
p3712
I3
sS'dmy'
p3713
I1
sS'lvi'
p3714
I2
sS'unb'
p3715
I1
sS'inx'
p3716
I38
sS'iny'
p3717
I27
sS'inz'
p3718
I6
sS'myq'
p3719
I1
sS'pia'
p3720
I14
sS'mys'
p3721
I5
sS'pic'
p3722
I1
sS'inp'
p3723
I2
sS'inq'
p3724
I5
sS'inr'
p3725
I2
sS'ins'
p3726
I9
sS'inl'
p3727
I2
sS'inm'
p3728
I4
sS'inn'
p3729
I5
sS'ghe'
p3730
I4
sS'inh'
p3731
I4
sS'myl'
p3732
I8
sS'inj'
p3733
I4
sS'ink'
p3734
I2
sS'ind'
p3735
I17
sS'ine'
p3736
I2
sS'inf'
p3737
I3
sS'ing'
p3738
I200
sS'pit'
p3739
I1
sS'ina'
p3740
I7
sS'inb'
p3741
I6
sS'inc'
p3742
I13
sS'wxu'
p3743
I3
sS'oae'
p3744
I1
sS'zvh'
p3745
I1
sS'oac'
p3746
I1
sS'oas'
p3747
I1
sS'wxc'
p3748
I1
sS'out'
p3749
I3
sS'hpf'
p3750
I3
sS'oay'
p3751
I1
sS'wxk'
p3752
I2
sS'ubt'
p3753
I1
sS'ubu'
p3754
I1
sS'rqt'
p3755
I3
sS'ubw'
p3756
I1
sS'ubx'
p3757
I1
sS'ube'
p3758
I1
sS'uba'
p3759
I11
sS'uos'
p3760
I4
sS'ubo'
p3761
I16
sS'mzx'
p3762
I1
sS'ubi'
p3763
I2
sS'ubj'
p3764
I1
sS'bcn'
p3765
I3
sS'bco'
p3766
I14
sS'bcj'
p3767
I1
sS'bck'
p3768
I1
sS'bcc'
p3769
I1
sS'eow'
p3770
I1
sS'bcy'
p3771
I1
sS'hny'
p3772
I10
sS'hnz'
p3773
I10
sS'bcp'
p3774
I1
stRp3775
ag2
((dp3776
S'ybco'
p3777
I1
sS'qqjg'
p3778
I1
sS'qqji'
p3779
I2
sS'hchb'
p3780
I10
sS'oxze'
p3781
I1
sS'edua'
p3782
I1
sS'gqec'
p3783
I2
sS'beqr'
p3784
I1
sS'xyvj'
p3785
I1
sS'hxuq'
p3786
I1
sS'swan'
p3787
I1
sS'ardb'
p3788
I1
sS'xhpf'
p3789
I3
sS'negs'
p3790
I10
sS'uzhe'
p3791
I44
sS'ngyy'
p3792
I2
sS'gcgc'
p3793
I1
sS'ngyu'
p3794
I21
sS'ngyo'
p3795
I11
sS'gyud'
p3796
I1
sS'gyuc'
p3797
I1
sS'delt'
p3798
I1
sS'gyua'
p3799
I2
sS'ngyi'
p3800
I9
sS'gyun'
p3801
I1
sS'gyul'
p3802
I18
sS'ptvp'
p3803
I1
sS'ngya'
p3804
I15
sS'gscs'
p3805
I1
sS'rlit'
p3806
I1
sS'cner'
p3807
I1
sS'inba'
p3808
I1
sS'gscn'
p3809
I10
sS'inbi'
p3810
I2
sS'inbo'
p3811
I2
sS'cnww'
p3812
I3
sS'enta'
p3813
I2
sS'leya'
p3814
I2
sS'cjia'
p3815
I1
sS'nged'
p3816
I12
sS'bbqt'
p3817
I1
sS'enti'
p3818
I1
sS'jhex'
p3819
I1
sS'nger'
p3820
I1
sS'bbqb'
p3821
I1
sS'ngep'
p3822
I2
sS'esof'
p3823
I1
sS'entu'
p3824
I2
sS'uvhj'
p3825
I1
sS'bbqh'
p3826
I1
sS'yaco'
p3827
I1
sS'asim'
p3828
I1
sS'fugu'
p3829
I4
sS'nmeh'
p3830
I1
sS'asie'
p3831
I2
sS'asic'
p3832
I6
sS'nmwo'
p3833
I1
sS'bedx'
p3834
I1
sS'wujz'
p3835
I1
sS'tdjp'
p3836
I20
sS'bnio'
p3837
I1
sS'asir'
p3838
I1
sS'hwpl'
p3839
I1
sS'aigo'
p3840
I1
sS'dfbq'
p3841
I1
sS'ongl'
p3842
I2
sS'ongm'
p3843
I1
sS'ongj'
p3844
I9
sS'dfbu'
p3845
I1
sS'ongh'
p3846
I13
sS'ongi'
p3847
I10
sS'ongf'
p3848
I3
sS'ongg'
p3849
I2
sS'ongd'
p3850
I1
sS'onge'
p3851
I1
sS'ongb'
p3852
I2
sS'ongc'
p3853
I44
sS'onga'
p3854
I1
sS'dfba'
p3855
I2
sS'osha'
p3856
I5
sS'ongz'
p3857
I2
sS'ongx'
p3858
I4
sS'ongy'
p3859
I11
sS'dfbh'
p3860
I1
sS'ongw'
p3861
I3
sS'aigu'
p3862
I6
sS'oshi'
p3863
I7
sS'ongr'
p3864
I2
sS'ongs'
p3865
I6
sS'ongq'
p3866
I3
sS'hulu'
p3867
I3
sS'mbjl'
p3868
I2
sS'omai'
p3869
I10
sS'omah'
p3870
I1
sS'gdyc'
p3871
I1
sS'bvip'
p3872
I3
sS'mksa'
p3873
I1
sS'ywlj'
p3874
I1
sS'qxyf'
p3875
I1
sS'engl'
p3876
I8
sS'uniu'
p3877
I1
sS'tely'
p3878
I1
sS'vjpb'
p3879
I1
sS'calo'
p3880
I1
sS'vjjh'
p3881
I1
sS'nkej'
p3882
I1
sS'engb'
p3883
I7
sS'xbcp'
p3884
I1
sS'xian'
p3885
I46
sS'hurv'
p3886
I1
sS'enge'
p3887
I2
sS'bxzw'
p3888
I1
sS'exco'
p3889
I10
sS'ware'
p3890
I2
sS'xbco'
p3891
I1
sS'gtyt'
p3892
I1
sS'nliu'
p3893
I4
sS'akis'
p3894
I1
sS'gpai'
p3895
I2
sS'uban'
p3896
I7
sS'ubao'
p3897
I1
sS'zkcl'
p3898
I1
sS'oley'
p3899
I2
sS'ddli'
p3900
I1
sS'hizi'
p3901
I2
sS'gzou'
p3902
I2
sS'nlin'
p3903
I1
sS'yvjp'
p3904
I1
sS'wang'
p3905
I130
sS'wand'
p3906
I3
sS'iawe'
p3907
I1
sS'ljia'
p3908
I1
sS'iawa'
p3909
I2
sS'wans'
p3910
I1
sS'wanq'
p3911
I2
sS'cehu'
p3912
I1
sS'wanz'
p3913
I1
sS'lijd'
p3914
I1
sS'ilia'
p3915
I2
sS'ilie'
p3916
I2
sS'ilih'
p3917
I1
sS'ioef'
p3918
I1
sS'iewh'
p3919
I5
sS'ewch'
p3920
I1
sS'ufmy'
p3921
I1
sS'ilip'
p3922
I3
sS'deli'
p3923
I3
sS'ilis'
p3924
I3
sS'iliu'
p3925
I1
sS'iliw'
p3926
I1
sS'iliy'
p3927
I1
sS'tbao'
p3928
I9
sS'tvfs'
p3929
I1
sS'lwan'
p3930
I1
sS'yuer'
p3931
I1
sS'egon'
p3932
I8
sS'bsne'
p3933
I1
sS'dqkf'
p3934
I1
sS'wuwu'
p3935
I2
sS'hyzt'
p3936
I1
sS'winy'
p3937
I1
sS'fbjl'
p3938
I1
sS'aomv'
p3939
I1
sS'wint'
p3940
I1
sS'jiio'
p3941
I1
sS'uaaa'
p3942
I1
sS'aomi'
p3943
I2
sS'aome'
p3944
I15
sS'wina'
p3945
I2
sS'aoma'
p3946
I1
sS'deco'
p3947
I10
sS'wlmb'
p3948
I1
sS'jdvi'
p3949
I1
sS'dece'
p3950
I1
sS'ngxu'
p3951
I1
sS'skvi'
p3952
I1
sS'kvip'
p3953
I2
sS'uogs'
p3954
I1
sS'uogu'
p3955
I1
sS'cjte'
p3956
I1
sS'gwxc'
p3957
I1
sS'ngye'
p3958
I2
sS'rpwa'
p3959
I1
sS'inan'
p3960
I2
sS'inao'
p3961
I1
sS'iuwa'
p3962
I1
sS'inai'
p3963
I1
sS'vspu'
p3964
I1
sS'oolc'
p3965
I10
sS'azcc'
p3966
I2
sS'njcr'
p3967
I6
sS'eyan'
p3968
I5
sS'jbbj'
p3969
I1
sS'rbtp'
p3970
I1
sS'ania'
p3971
I1
sS'nyuc'
p3972
I6
sS'eyaz'
p3973
I3
sS'nepc'
p3974
I1
sS'nspq'
p3975
I1
sS'wenc'
p3976
I9
sS'wenz'
p3977
I1
sS'shal'
p3978
I1
sS'bonc'
p3979
I1
sS'wscs'
p3980
I1
sS'went'
p3981
I2
sS'gmfu'
p3982
I1
sS'wenq'
p3983
I1
sS'erto'
p3984
I2
sS'hequ'
p3985
I1
sS'liga'
p3986
I3
sS'zuid'
p3987
I1
sS'aida'
p3988
I4
sS'ligi'
p3989
I1
sS'bcjd'
p3990
I1
sS'xmei'
p3991
I1
sS'doud'
p3992
I1
sS'douh'
p3993
I1
sS'ertp'
p3994
I1
sS'doun'
p3995
I1
sS'aidu'
p3996
I3
sS'taoj'
p3997
I1
sS'gjsd'
p3998
I1
sS'ihom'
p3999
I3
sS'taoc'
p4000
I2
sS'noxu'
p4001
I1
sS'taoy'
p4002
I1
sS'cbhh'
p4003
I1
sS'taop'
p4004
I5
sS'taos'
p4005
I2
sS'ivst'
p4006
I2
sS'oxyg'
p4007
I1
sS'vghe'
p4008
I1
sS'inbj'
p4009
I1
sS'gqff'
p4010
I3
sS'wlna'
p4011
I1
sS'imka'
p4012
I1
sS'loux'
p4013
I1
sS'zapt'
p4014
I3
sS'epvi'
p4015
I1
sS'neks'
p4016
I1
sS'ehao'
p4017
I2
sS'loud'
p4018
I1
sS'pzmy'
p4019
I1
sS'zeli'
p4020
I1
sS'zelw'
p4021
I1
sS'eqrg'
p4022
I1
sS'rong'
p4023
I12
sS'utuj'
p4024
I1
sS'hiyu'
p4025
I3
sS'lvbi'
p4026
I3
sS'oldb'
p4027
I1
sS'wwqe'
p4028
I1
sS'qdqq'
p4029
I1
sS'jtsw'
p4030
I1
sS'aixi'
p4031
I8
sS'legu'
p4032
I1
sS'ssto'
p4033
I1
sS'ngdo'
p4034
I1
sS'ngdi'
p4035
I3
sS'bhxu'
p4036
I1
sS'ngde'
p4037
I5
sS'bhxy'
p4038
I1
sS'ngda'
p4039
I13
sS'vhex'
p4040
I2
sS'elsk'
p4041
I1
sS'ntin'
p4042
I2
sS'ngdy'
p4043
I1
sS'ntih'
p4044
I1
sS'jmll'
p4045
I1
sS'ngdu'
p4046
I10
sS'eshi'
p4047
I2
sS'usco'
p4048
I20
sS'esho'
p4049
I2
sS'idls'
p4050
I1
sS'iuka'
p4051
I1
sS'uyua'
p4052
I1
sS'ejcr'
p4053
I4
sS'uyub'
p4054
I1
sS'hayj'
p4055
I1
sS'tcyq'
p4056
I2
sS'uyul'
p4057
I9
sS'uyun'
p4058
I1
sS'apre'
p4059
I10
sS'estc'
p4060
I1
sS'minb'
p4061
I1
sS'mind'
p4062
I1
sS'ming'
p4063
I27
sS'xpbj'
p4064
I1
sS'qylc'
p4065
I1
sS'eagg'
p4066
I1
sS'jiha'
p4067
I1
sS'eson'
p4068
I11
sS'jihe'
p4069
I1
sS'rhcc'
p4070
I10
sS'uafa'
p4071
I1
sS'aoni'
p4072
I2
sS'pqin'
p4073
I20
sS'jihu'
p4074
I1
sS'aona'
p4075
I1
sS'aone'
p4076
I1
sS'unhu'
p4077
I1
sS'fstb'
p4078
I1
sS'vfst'
p4079
I1
sS'unha'
p4080
I1
sS'gboc'
p4081
I1
sS'gbof'
p4082
I1
sS'itkt'
p4083
I1
sS'enqi'
p4084
I3
sS'maji'
p4085
I1
sS'huqi'
p4086
I1
sS'arli'
p4087
I1
sS'majz'
p4088
I2
sS'sgct'
p4089
I1
sS'eyfh'
p4090
I2
sS'ewiq'
p4091
I1
sS'anho'
p4092
I1
sS'anhn'
p4093
I1
sS'ayco'
p4094
I10
sS'izai'
p4095
I1
sS'anhe'
p4096
I2
sS'iuji'
p4097
I1
sS'twex'
p4098
I10
sS'iidd'
p4099
I1
sS'lizh'
p4100
I4
sS'anhu'
p4101
I8
sS'lizn'
p4102
I1
sS'hbxy'
p4103
I1
sS'menx'
p4104
I1
sS'menz'
p4105
I1
sS'menp'
p4106
I1
sS'ttle'
p4107
I1
sS'menh'
p4108
I3
sS'pjhc'
p4109
I10
sS'xpla'
p4110
I1
sS'mend'
p4111
I7
sS'meng'
p4112
I2
sS'sieg'
p4113
I2
sS'menb'
p4114
I7
sS'menc'
p4115
I1
sS'dzsw'
p4116
I20
sS'stoo'
p4117
I10
sS'stoi'
p4118
I1
sS'qpwp'
p4119
I1
sS'wpla'
p4120
I2
sS'dsta'
p4121
I1
sS'pofu'
p4122
I2
sS'hvqq'
p4123
I1
sS'rrqt'
p4124
I3
sS'tvga'
p4125
I1
sS'cyqw'
p4126
I2
sS'fbty'
p4127
I1
sS'qiha'
p4128
I2
sS'fbtu'
p4129
I1
sS'ongo'
p4130
I10
sS'eguo'
p4131
I6
sS'etia'
p4132
I1
sS'erua'
p4133
I1
sS'utbx'
p4134
I1
sS'msad'
p4135
I5
sS'dfbt'
p4136
I2
sS'best'
p4137
I1
sS'ongk'
p4138
I7
sS'uizh'
p4139
I2
sS'kovv'
p4140
I1
sS'uize'
p4141
I3
sS'nawa'
p4142
I1
sS'bfha'
p4143
I1
sS'daha'
p4144
I1
sS'jrrr'
p4145
I1
sS'uizu'
p4146
I1
sS'saiz'
p4147
I1
sS'ayan'
p4148
I1
sS'azay'
p4149
I1
sS'dzbb'
p4150
I1
sS'gywz'
p4151
I10
sS'skwo'
p4152
I1
sS'uohe'
p4153
I2
sS'itbs'
p4154
I1
sS'azai'
p4155
I3
sS'gwyc'
p4156
I1
sS'gfmf'
p4157
I1
sS'vuzf'
p4158
I1
sS'gsay'
p4159
I6
sS'uazc'
p4160
I1
sS'uufd'
p4161
I2
sS'iczx'
p4162
I1
sS'iutu'
p4163
I1
sS'iuto'
p4164
I2
sS'pitb'
p4165
I1
sS'ngch'
p4166
I19
sS'bbsx'
p4167
I5
sS'gwei'
p4168
I1
sS'ngcn'
p4169
I51
sS'enzh'
p4170
I2
sS'ngca'
p4171
I6
sS'enzc'
p4172
I1
sS'ngce'
p4173
I1
sS'xito'
p4174
I2
sS'dhan'
p4175
I7
sS'ngcy'
p4176
I1
sS'ngcz'
p4177
I1
sS'nliz'
p4178
I2
sS'usli'
p4179
I1
sS'uslj'
p4180
I1
sS'bbsn'
p4181
I1
sS'ongt'
p4182
I2
sS'bzbx'
p4183
I1
sS'bhyb'
p4184
I1
sS'ongu'
p4185
I2
sS'idou'
p4186
I1
sS'haxu'
p4187
I1
sS'osho'
p4188
I2
sS'ting'
p4189
I3
sS'haxi'
p4190
I1
sS'bmga'
p4191
I1
sS'puto'
p4192
I1
sS'zuho'
p4193
I1
sS'qfux'
p4194
I1
sS'pytj'
p4195
I1
sS'ersl'
p4196
I1
sS'suan'
p4197
I1
sS'chua'
p4198
I9
sS'chum'
p4199
I1
sS'aieg'
p4200
I2
sS'sdbh'
p4201
I1
sS'hkji'
p4202
I1
sS'chus'
p4203
I3
sS'osno'
p4204
I1
sS'cuns'
p4205
I3
sS'renn'
p4206
I1
sS'chuz'
p4207
I2
sS'cunt'
p4208
I1
sS'omcn'
p4209
I28
sS'tjzj'
p4210
I1
sS'tanh'
p4211
I1
sS'tjzd'
p4212
I7
sS'tand'
p4213
I1
sS'tanb'
p4214
I1
sS'nean'
p4215
I1
sS'ovvd'
p4216
I1
sS'uspq'
p4217
I1
sS'tanv'
p4218
I2
sS'ihnz'
p4219
I3
sS'gbai'
p4220
I7
sS'nvxi'
p4221
I3
sS'ycom'
p4222
I39
sS'udan'
p4223
I1
sS'udao'
p4224
I1
sS'udai'
p4225
I5
sS'jyou'
p4226
I1
sS'hone'
p4227
I10
sS'hong'
p4228
I25
sS'qjia'
p4229
I3
sS'maki'
p4230
I1
sS'hupi'
p4231
I2
sS'kizi'
p4232
I1
sS'oupa'
p4233
I3
sS'hgyu'
p4234
I1
sS'oupu'
p4235
I6
sS'ngwa'
p4236
I12
sS'ello'
p4237
I1
sS'hixi'
p4238
I1
sS'nsho'
p4239
I1
sS'wycn'
p4240
I1
sS'tplj'
p4241
I1
sS'oqxw'
p4242
I2
sS'ihcn'
p4243
I3
sS'pszc'
p4244
I1
sS'ubol'
p4245
I2
sS'uboj'
p4246
I2
sS'qmmk'
p4247
I1
sS'ubog'
p4248
I1
sS'uboc'
p4249
I4
sS'uboy'
p4250
I2
sS'uboz'
p4251
I1
sS'ubot'
p4252
I1
sS'ubov'
p4253
I1
sS'ubow'
p4254
I1
sS'nlon'
p4255
I1
sS'ubos'
p4256
I1
sS'iaus'
p4257
I20
sS'rbcn'
p4258
I3
sS'ceja'
p4259
I1
sS'ucai'
p4260
I2
sS'hvvq'
p4261
I1
sS'nlsc'
p4262
I10
sS'ezel'
p4263
I1
sS'fhzq'
p4264
I1
sS'ewei'
p4265
I1
sS'hvva'
p4266
I1
sS'fbux'
p4267
I1
sS'ewew'
p4268
I1
sS'jibo'
p4269
I2
sS'hjft'
p4270
I1
sS'esud'
p4271
I2
sS'wxkd'
p4272
I2
sS'byzj'
p4273
I1
sS'tyul'
p4274
I2
sS'jike'
p4275
I1
sS'jjgy'
p4276
I1
sS'uagg'
p4277
I1
sS'kazp'
p4278
I1
sS'jjgj'
p4279
I1
sS'oxuz'
p4280
I1
sS'wlcn'
p4281
I1
sS'dzcc'
p4282
I1
sS'paih'
p4283
I3
sS'kblo'
p4284
I1
sS'rtun'
p4285
I2
sS'ekef'
p4286
I1
sS'jdtp'
p4287
I1
sS'uhec'
p4288
I17
sS'nqxw'
p4289
I1
sS'bizh'
p4290
I1
sS'uhei'
p4291
I1
sS'mbyq'
p4292
I1
sS'iuuf'
p4293
I1
sS'anww'
p4294
I1
sS'bole'
p4295
I2
sS'efev'
p4296
I1
sS'liyu'
p4297
I1
sS'unsh'
p4298
I1
sS'egoc'
p4299
I3
sS'liyo'
p4300
I8
sS'bolu'
p4301
I2
sS'anwa'
p4302
I9
sS'efei'
p4303
I1
sS'anwl'
p4304
I1
sS'fajr'
p4305
I1
sS'liya'
p4306
I14
sS'orel'
p4307
I1
sS'iaow'
p4308
I3
sS'oren'
p4309
I1
sS'acom'
p4310
I3
sS'adey'
p4311
I1
sS'pjia'
p4312
I1
sS'ldbs'
p4313
I1
sS'hcom'
p4314
I30
sS'ribl'
p4315
I1
sS'ribo'
p4316
I1
sS'adec'
p4317
I1
sS'adel'
p4318
I1
sS'aden'
p4319
I1
sS'ldby'
p4320
I1
sS'eich'
p4321
I1
sS'dfay'
p4322
I2
sS'dfaz'
p4323
I1
sS'aibt'
p4324
I1
sS'aibu'
p4325
I2
sS'betd'
p4326
I1
sS'zibl'
p4327
I1
sS'hszx'
p4328
I1
sS'aiba'
p4329
I12
sS'iahu'
p4330
I1
sS'atfy'
p4331
I1
sS'fajd'
p4332
I1
sS'aibi'
p4333
I2
sS'naxu'
p4334
I1
sS'koub'
p4335
I1
sS'rghj'
p4336
I1
sS'imie'
p4337
I1
sS'ihan'
p4338
I1
sS'ihao'
p4339
I4
sS'imia'
p4340
I2
sS'cldb'
p4341
I1
sS'umqm'
p4342
I1
sS'ojpa'
p4343
I2
sS'aosu'
p4344
I3
sS'bert'
p4345
I1
sS'yxvb'
p4346
I1
sS'tliy'
p4347
I1
sS'qnde'
p4348
I1
sS'hzfy'
p4349
I1
sS'fort'
p4350
I2
sS'laye'
p4351
I2
sS'iqua'
p4352
I3
sS'mgab'
p4353
I1
sS'xhst'
p4354
I1
sS'otwe'
p4355
I10
sS'duer'
p4356
I1
sS'shij'
p4357
I8
sS'bxyl'
p4358
I10
sS'zenm'
p4359
I6
sS'shil'
p4360
I1
sS'shim'
p4361
I4
sS'avjs'
p4362
I1
sS'shic'
p4363
I1
sS'shif'
p4364
I1
sS'zeng'
p4365
I1
sS'shiz'
p4366
I5
sS'iyac'
p4367
I1
sS'shiy'
p4368
I3
sS'shir'
p4369
I3
sS'shis'
p4370
I2
sS'ship'
p4371
I4
sS'mhsd'
p4372
I1
sS'shit'
p4373
I5
sS'iyan'
p4374
I26
sS'liub'
p4375
I1
sS'gzhi'
p4376
I9
sS'gzho'
p4377
I3
sS'obai'
p4378
I2
sS'gzha'
p4379
I8
sS'enjx'
p4380
I1
sS'oban'
p4381
I1
sS'obao'
p4382
I5
sS'obap'
p4383
I1
sS'nlli'
p4384
I1
sS'otuj'
p4385
I2
sS'gzhu'
p4386
I6
sS'ngbj'
p4387
I1
sS'ngbi'
p4388
I2
sS'enyi'
p4389
I3
sS'ngbo'
p4390
I2
sS'yftx'
p4391
I10
sS'ijcr'
p4392
I4
sS'tmmy'
p4393
I1
sS'ngba'
p4394
I16
sS'enya'
p4395
I5
sS'ntou'
p4396
I2
sS'ngbd'
p4397
I1
sS'enyy'
p4398
I1
sS'felh'
p4399
I1
sS'zgxu'
p4400
I1
sS'dieg'
p4401
I2
sS'ngbu'
p4402
I1
sS'enyu'
p4403
I2
sS'sdad'
p4404
I7
sS'yztf'
p4405
I1
sS'ejar'
p4406
I1
sS'yazh'
p4407
I6
sS'yazm'
p4408
I1
sS'oayu'
p4409
I1
sS'qyjp'
p4410
I1
sS'apto'
p4411
I3
sS'dlkh'
p4412
I1
sS'bbhx'
p4413
I2
sS'bbhy'
p4414
I1
sS'hjge'
p4415
I2
sS'aohu'
p4416
I1
sS'pbjg'
p4417
I1
sS'pxuz'
p4418
I1
sS'bbhv'
p4419
I4
sS'jiji'
p4420
I3
sS'ojoz'
p4421
I1
sS'akna'
p4422
I1
sS'gbis'
p4423
I1
sS'gbiy'
p4424
I1
sS'uade'
p4425
I1
sS'fylc'
p4426
I3
sS'kech'
p4427
I2
sS'ogou'
p4428
I1
sS'fzbi'
p4429
I10
sS'iyor'
p4430
I1
sS'unna'
p4431
I4
sS'aiuf'
p4432
I1
sS'qroy'
p4433
I1
sS'caoz'
p4434
I2
sS'ogoj'
p4435
I1
sS'ouqi'
p4436
I2
sS'pwpl'
p4437
I1
sS'mahe'
p4438
I1
sS'item'
p4439
I1
sS'ouqu'
p4440
I3
sS'oftw'
p4441
I2
sS'boca'
p4442
I20
sS'efdh'
p4443
I1
sS'buus'
p4444
I1
sS'zdyg'
p4445
I10
sS'ubai'
p4446
I3
sS'anvi'
p4447
I2
sS'gmys'
p4448
I1
sS'wsdp'
p4449
I1
sS'nsun'
p4450
I1
sS'nyon'
p4451
I1
sS'meli'
p4452
I1
sS'adda'
p4453
I1
sS'dlsd'
p4454
I1
sS'hhyb'
p4455
I1
sS'addh'
p4456
I2
sS'waib'
p4457
I1
sS'hizh'
p4458
I5
sS'waig'
p4459
I3
sS'feng'
p4460
I2
sS'yiza'
p4461
I1
sS'nwei'
p4462
I2
sS'nwen'
p4463
I2
sS'iaro'
p4464
I2
sS'rsle'
p4465
I1
sS'iejz'
p4466
I1
sS'iljy'
p4467
I2
sS'eixi'
p4468
I1
sS'kcad'
p4469
I1
sS'jqji'
p4470
I1
sS'ieji'
p4471
I2
sS'iand'
p4472
I10
sS'iane'
p4473
I10
sS'ianf'
p4474
I4
sS'iang'
p4475
I50
sS'love'
p4476
I2
sS'umps'
p4477
I1
sS'paji'
p4478
I2
sS'ianc'
p4479
I3
sS'ianl'
p4480
I5
sS'ianm'
p4481
I1
sS'ianh'
p4482
I6
sS'iani'
p4483
I1
sS'ianj'
p4484
I10
sS'iank'
p4485
I2
sS'iant'
p4486
I4
sS'fakc'
p4487
I1
sS'ianw'
p4488
I1
sS'ianp'
p4489
I1
sS'msco'
p4490
I1
sS'ians'
p4491
I30
sS'hxyv'
p4492
I1
sS'ianx'
p4493
I5
sS'yify'
p4494
I1
sS'ianz'
p4495
I1
sS'ohuj'
p4496
I1
sS'uixi'
p4497
I1
sS'iawi'
p4498
I2
sS'tbxy'
p4499
I2
sS'wjts'
p4500
I1
sS'aina'
p4501
I2
sS'uoji'
p4502
I29
sS'keso'
p4503
I1
sS'sqwo'
p4504
I1
sS'gyqq'
p4505
I1
sS'wlbc'
p4506
I1
sS'oduc'
p4507
I1
sS'gedu'
p4508
I12
sS'oduq'
p4509
I1
sS'geyu'
p4510
I1
sS'indi'
p4511
I1
sS'ufyl'
p4512
I1
sS'fenx'
p4513
I5
sS'vsuf'
p4514
I1
sS'anpi'
p4515
I6
sS'zhao'
p4516
I6
sS'zhan'
p4517
I9
sS'gsgc'
p4518
I1
sS'uaxx'
p4519
I1
sS'kfux'
p4520
I1
sS'dykm'
p4521
I1
sS'fuca'
p4522
I1
sS'fucn'
p4523
I10
sS'lwsm'
p4524
I1
sS'xizc'
p4525
I1
sS'fuci'
p4526
I1
sS'xiyi'
p4527
I1
sS'ngaa'
p4528
I1
sS'ngan'
p4529
I3
sS'ngao'
p4530
I3
sS'ngal'
p4531
I1
sS'enxi'
p4532
I7
sS'pinj'
p4533
I1
sS'inzh'
p4534
I4
sS'idiq'
p4535
I3
sS'ping'
p4536
I18
sS'pinf'
p4537
I1
sS'pinz'
p4538
I1
sS'piny'
p4539
I12
sS'pinx'
p4540
I3
sS'idil'
p4541
I1
sS'idin'
p4542
I1
sS'idia'
p4543
I2
sS'wune'
p4544
I1
sS'pinw'
p4545
I2
sS'inzu'
p4546
I2
sS'cbmg'
p4547
I1
sS'aicz'
p4548
I1
sS'dovu'
p4549
I1
sS'aica'
p4550
I3
sS'dati'
p4551
I1
sS'guyu'
p4552
I1
sS'aich'
p4553
I8
sS'neco'
p4554
I2
sS'omen'
p4555
I15
sS'uqxu'
p4556
I1
sS'omec'
p4557
I10
sS'lish'
p4558
I2
sS'ovxk'
p4559
I3
sS'ovxi'
p4560
I2
sS'nsiz'
p4561
I1
sS'rcom'
p4562
I4
sS'zjgy'
p4563
I1
sS'vyvf'
p4564
I1
sS'bjia'
p4565
I1
sS'ipts'
p4566
I1
sS'bjii'
p4567
I1
sS'zmak'
p4568
I1
sS'mqms'
p4569
I1
sS'gqin'
p4570
I2
sS'fwan'
p4571
I2
sS'maiw'
p4572
I2
sS'maiq'
p4573
I10
sS'mair'
p4574
I2
sS'maiy'
p4575
I8
sS'maiz'
p4576
I1
sS'maia'
p4577
I1
sS'avip'
p4578
I1
sS'eqqr'
p4579
I4
sS'beie'
p4580
I1
sS'beij'
p4581
I3
sS'llob'
p4582
I1
sS'beiq'
p4583
I1
sS'ofxu'
p4584
I1
sS'dmtz'
p4585
I1
sS'beiy'
p4586
I2
sS'beiz'
p4587
I1
sS'pwmi'
p4588
I1
sS'oliy'
p4589
I1
sS'ledu'
p4590
I3
sS'zaib'
p4591
I1
sS'zaid'
p4592
I1
sS'zaix'
p4593
I2
sS'cszn'
p4594
I8
sS'zaip'
p4595
I1
sS'olia'
p4596
I2
sS'ntlz'
p4597
I1
sS'czhu'
p4598
I10
sS'iasv'
p4599
I2
sS'gtai'
p4600
I9
sS'nyft'
p4601
I10
sS'jlco'
p4602
I2
sS'fhxs'
p4603
I6
sS'iasi'
p4604
I2
sS'iluv'
p4605
I2
sS'uzhu'
p4606
I19
sS'cytn'
p4607
I1
sS'ufap'
p4608
I2
sS'oqia'
p4609
I1
sS'qigo'
p4610
I1
sS'phub'
p4611
I1
sS'ufan'
p4612
I1
sS'ymco'
p4613
I10
sS'alws'
p4614
I1
sS'ilun'
p4615
I4
sS'uzho'
p4616
I4
sS'apwh'
p4617
I2
sS'wxiy'
p4618
I2
sS'sdjq'
p4619
I1
sS'cnxh'
p4620
I1
sS'egco'
p4621
I2
sS'hpfc'
p4622
I3
sS'jiuq'
p4623
I1
sS'jiuy'
p4624
I13
sS'nufd'
p4625
I1
sS'jiuc'
p4626
I6
sS'uaeb'
p4627
I2
sS'uaed'
p4628
I2
sS'jiuj'
p4629
I1
sS'lfkc'
p4630
I5
sS'hybd'
p4631
I1
sS'degu'
p4632
I2
sS'wsco'
p4633
I1
sS'gchu'
p4634
I4
sS'afen'
p4635
I1
sS'iktf'
p4636
I1
sS'wxuz'
p4637
I3
sS'kuai'
p4638
I3
sS'gcha'
p4639
I1
sS'hybz'
p4640
I2
sS'gche'
p4641
I14
sS'city'
p4642
I6
sS'adik'
p4643
I2
sS'ytpf'
p4644
I2
sS'gezh'
p4645
I3
sS'fasi'
p4646
I6
sS'ytpw'
p4647
I2
sS'uayu'
p4648
I7
sS'xgsg'
p4649
I1
sS'vsto'
p4650
I10
sS'jyul'
p4651
I9
sS'nzen'
p4652
I1
sS'boba'
p4653
I1
sS'yyto'
p4654
I1
sS'mzxt'
p4655
I1
sS'cfpt'
p4656
I1
sS'orgc'
p4657
I20
sS'qibt'
p4658
I1
sS'eias'
p4659
I2
sS'tyhb'
p4660
I1
sS'ajdv'
p4661
I1
sS'wins'
p4662
I1
sS'dygs'
p4663
I10
sS'emen'
p4664
I1
sS'thui'
p4665
I1
sS'xwyi'
p4666
I4
sS'woas'
p4667
I1
sS'guze'
p4668
I1
sS'dash'
p4669
I1
sS'xury'
p4670
I1
sS'pyif'
p4671
I1
sS'dasa'
p4672
I1
sS'iaxu'
p4673
I1
sS'gnoc'
p4674
I1
sS'rrme'
p4675
I1
sS'nshn'
p4676
I1
sS'nshi'
p4677
I4
sS'nshe'
p4678
I26
sS'nsha'
p4679
I8
sS'fabu'
p4680
I1
sS'kscn'
p4681
I2
sS'uqyj'
p4682
I1
sS'nshu'
p4683
I4
sS'enrt'
p4684
I2
sS'paij'
p4685
I1
sS'tfak'
p4686
I1
sS'iaod'
p4687
I2
sS'iaoc'
p4688
I1
sS'iaob'
p4689
I1
sS'pail'
p4690
I12
sS'eowi'
p4691
I1
sS'paic'
p4692
I5
sS'bety'
p4693
I2
sS'iaol'
p4694
I4
sS'iaok'
p4695
I7
sS'iaoj'
p4696
I1
sS'paid'
p4697
I2
sS'iaoh'
p4698
I1
sS'betc'
p4699
I2
sS'abuw'
p4700
I1
sS'paix'
p4701
I2
sS'paiy'
p4702
I11
sS'iaos'
p4703
I4
sS'iaop'
p4704
I1
sS'mdyl'
p4705
I1
sS'pais'
p4706
I1
sS'paip'
p4707
I1
sS'xsht'
p4708
I1
sS'etji'
p4709
I1
sS'iaoz'
p4710
I2
sS'iaoy'
p4711
I8
sS'uiyu'
p4712
I2
sS'opzx'
p4713
I10
sS'hvhe'
p4714
I1
sS'ahkj'
p4715
I1
sS'uiya'
p4716
I1
sS'bada'
p4717
I1
sS'ghjg'
p4718
I1
sS'shop'
p4719
I10
sS'sylc'
p4720
I8
sS'shou'
p4721
I15
sS'ddah'
p4722
I1
sS'iyou'
p4723
I20
sS'ybzj'
p4724
I2
sS'kwom'
p4725
I1
sS'iyon'
p4726
I7
sS'elao'
p4727
I1
sS'uvcn'
p4728
I3
sS'uipi'
p4729
I1
sS'obcc'
p4730
I1
sS'fenw'
p4731
I1
sS'leke'
p4732
I1
sS'feny'
p4733
I3
sS'leka'
p4734
I1
sS'xcom'
p4735
I42
sS'xiym'
p4736
I10
sS'fubo'
p4737
I1
sS'edqb'
p4738
I1
sS'ofmy'
p4739
I1
sS'vuco'
p4740
I1
sS'bzmt'
p4741
I1
sS'qbjp'
p4742
I1
sS'ngxi'
p4743
I36
sS'inyu'
p4744
I11
sS'tiku'
p4745
I2
sS'qsin'
p4746
I1
sS'inya'
p4747
I15
sS'inyi'
p4748
I1
sS'apvi'
p4749
I2
sS'gout'
p4750
I1
sS'bbjr'
p4751
I1
sS'enca'
p4752
I1
sS'aoji'
p4753
I4
sS'tmwa'
p4754
I2
sS'encn'
p4755
I24
sS'enco'
p4756
I9
sS'gouy'
p4757
I1
sS'gouz'
p4758
I1
sS'gouf'
p4759
I1
sS'aojz'
p4760
I2
sS'goum'
p4761
I1
sS'ency'
p4762
I1
sS'jitu'
p4763
I1
sS'wush'
p4764
I2
sS'gkua'
p4765
I2
sS'pump'
p4766
I1
sS'oocx'
p4767
I1
sS'owie'
p4768
I1
sS'zyix'
p4769
I3
sS'rhgj'
p4770
I1
sS'tsun'
p4771
I1
sS'yyxc'
p4772
I1
sS'zuqi'
p4773
I11
sS'unli'
p4774
I1
sS'unlo'
p4775
I1
sS'ovew'
p4776
I2
sS'ousu'
p4777
I2
sS'toub'
p4778
I1
sS'ydlk'
p4779
I1
sS'uobo'
p4780
I1
sS'toup'
p4781
I2
sS'touq'
p4782
I2
sS'comj'
p4783
I2
sS'touz'
p4784
I7
sS'ousi'
p4785
I4
sS'oush'
p4786
I6
sS'izet'
p4787
I1
sS'izes'
p4788
I2
sS'bpco'
p4789
I4
sS'buwa'
p4790
I2
sS'anto'
p4791
I1
sS'anti'
p4792
I3
sS'ante'
p4793
I1
sS'anta'
p4794
I8
sS'eifs'
p4795
I1
sS'ocai'
p4796
I20
sS'eifu'
p4797
I2
sS'rrrq'
p4798
I1
sS'snet'
p4799
I2
sS'dspq'
p4800
I1
sS'snew'
p4801
I1
sS'eifa'
p4802
I2
sS'artm'
p4803
I4
sS'dbso'
p4804
I1
sS'ygvw'
p4805
I1
sS'dhex'
p4806
I1
sS'shsh'
p4807
I1
sS'xbxy'
p4808
I1
sS'iapo'
p4809
I1
sS'yixi'
p4810
I4
sS'iveb'
p4811
I2
sS'hvuz'
p4812
I1
sS'rsjl'
p4813
I1
sS'hvuq'
p4814
I1
sS'enmi'
p4815
I11
sS'hvuv'
p4816
I1
sS'npia'
p4817
I2
sS'kcom'
p4818
I12
sS'ptwa'
p4819
I1
sS'cocn'
p4820
I1
sS'iltj'
p4821
I3
sS'nzcc'
p4822
I2
sS'npin'
p4823
I6
sS'zfya'
p4824
I3
sS'iale'
p4825
I16
sS'toul'
p4826
I2
sS'yidi'
p4827
I1
sS'xyxj'
p4828
I1
sS'utfa'
p4829
I1
sS'lwke'
p4830
I1
sS'chax'
p4831
I1
sS'iqid'
p4832
I1
sS'rtpf'
p4833
I1
sS'ouse'
p4834
I1
sS'gfan'
p4835
I3
sS'upin'
p4836
I2
sS'aido'
p4837
I1
sS'gcit'
p4838
I2
sS'tous'
p4839
I2
sS'gfay'
p4840
I3
sS'naew'
p4841
I1
sS'gfap'
p4842
I1
sS'hvip'
p4843
I1
sS'rlco'
p4844
I1
sS'gseq'
p4845
I3
sS'czmy'
p4846
I1
sS'ndad'
p4847
I2
sS'ndag'
p4848
I1
sS'okqi'
p4849
I1
sS'ahui'
p4850
I1
sS'dbss'
p4851
I1
sS'ndao'
p4852
I2
sS'ndai'
p4853
I13
sS'rpxu'
p4854
I1
sS'erhj'
p4855
I1
sS'rpxm'
p4856
I1
sS'nday'
p4857
I2
sS'biww'
p4858
I1
sS'muoo'
p4859
I1
sS'ylcg'
p4860
I1
sS'ylce'
p4861
I1
sS'ylcc'
p4862
I24
sS'lzkc'
p4863
I1
sS'vubx'
p4864
I1
sS'ylcj'
p4865
I1
sS'ngor'
p4866
I20
sS'dezh'
p4867
I6
sS'zail'
p4868
I1
sS'ngon'
p4869
I4
sS'ylcp'
p4870
I2
sS'iqix'
p4871
I2
sS'gwai'
p4872
I1
sS'xixi'
p4873
I1
sS'ngob'
p4874
I1
sS'gwan'
p4875
I11
sS'iulu'
p4876
I2
sS'antu'
p4877
I2
sS'inxi'
p4878
I38
sS'libo'
p4879
I1
sS'hzat'
p4880
I1
sS'rgmy'
p4881
I1
sS'aias'
p4882
I2
sS'dutt'
p4883
I1
sS'aiao'
p4884
I1
sS'aian'
p4885
I1
sS'darc'
p4886
I4
sS'xuqj'
p4887
I1
sS'nsoj'
p4888
I1
sS'nson'
p4889
I3
sS'lcpl'
p4890
I2
sS'oxtl'
p4891
I1
sS'twin'
p4892
I2
sS'jpla'
p4893
I1
sS'alew'
p4894
I1
sS'grua'
p4895
I1
sS'nbud'
p4896
I1
sS'rtyu'
p4897
I8
sS'fyqg'
p4898
I1
sS'pcen'
p4899
I1
sS'mkyj'
p4900
I1
sS'ales'
p4901
I1
sS'fzen'
p4902
I1
sS'gruz'
p4903
I1
sS'exia'
p4904
I13
sS'irpg'
p4905
I1
sS'jkyu'
p4906
I1
sS'outu'
p4907
I1
sS'maoy'
p4908
I1
sS'exin'
p4909
I2
sS'cstb'
p4910
I2
sS'hojp'
p4911
I2
sS'noox'
p4912
I1
sS'wyou'
p4913
I1
sS'wnjc'
p4914
I2
sS'aode'
p4915
I2
sS'ozho'
p4916
I2
sS'shny'
p4917
I1
sS'olon'
p4918
I2
sS'ybyq'
p4919
I1
sS'akou'
p4920
I1
sS'wwzy'
p4921
I1
sS'zesh'
p4922
I2
sS'usha'
p4923
I4
sS'ushe'
p4924
I2
sS'ushi'
p4925
I12
sS'feil'
p4926
I3
sS'uibj'
p4927
I1
sS'usho'
p4928
I4
sS'gzen'
p4929
I2
sS'leji'
p4930
I4
sS'feix'
p4931
I1
sS'feiy'
p4932
I9
sS'lejc'
p4933
I4
sS'vkfu'
p4934
I1
sS'upuk'
p4935
I6
sS'qetj'
p4936
I1
sS'yqxm'
p4937
I1
sS'yiyu'
p4938
I5
sS'grbc'
p4939
I2
sS'rlux'
p4940
I1
sS'ljcl'
p4941
I1
sS'eewa'
p4942
I1
sS'guvc'
p4943
I2
sS'culi'
p4944
I1
sS'ulud'
p4945
I1
sS'uzfy'
p4946
I1
sS'qgwo'
p4947
I2
sS'ulun'
p4948
I3
sS'bshs'
p4949
I1
sS'nzde'
p4950
I1
sS'kcld'
p4951
I1
sS'enbd'
p4952
I1
sS'enba'
p4953
I6
sS'aoka'
p4954
I7
sS'chhs'
p4955
I1
sS'gorg'
p4956
I21
sS'aokq'
p4957
I1
sS'apin'
p4958
I1
sS'aide'
p4959
I2
sS'aokt'
p4960
I1
sS'lanb'
p4961
I2
sS'gbjl'
p4962
I1
sS'gbjf'
p4963
I2
sS'rusx'
p4964
I1
sS'osin'
p4965
I1
sS'jjcn'
p4966
I2
sS'erty'
p4967
I8
sS'nrtm'
p4968
I6
sS'gone'
p4969
I8
sS'gong'
p4970
I11
sS'wgfm'
p4971
I1
sS'zxhp'
p4972
I3
sS'rewc'
p4973
I1
sS'deel'
p4974
I1
sS'opco'
p4975
I1
sS'dqqj'
p4976
I1
sS'lhex'
p4977
I1
sS'uhai'
p4978
I2
sS'lssd'
p4979
I1
sS'uhao'
p4980
I2
sS'njiu'
p4981
I5
sS'njiq'
p4982
I2
sS'njin'
p4983
I12
sS'njim'
p4984
I1
sS'njih'
p4985
I1
sS'njig'
p4986
I3
sS'ytrp'
p4987
I1
sS'njid'
p4988
I1
sS'njia'
p4989
I12
sS'ijdt'
p4990
I1
sS'ansp'
p4991
I1
sS'unwa'
p4992
I4
sS'ansr'
p4993
I3
sS'fsco'
p4994
I10
sS'qxco'
p4995
I4
sS'nren'
p4996
I2
sS'ansh'
p4997
I34
sS'ansi'
p4998
I1
sS'fscs'
p4999
I1
sS'ijot'
p5000
I1
sS'ouhe'
p5001
I1
sS'ouhn'
p5002
I1
sS'mash'
p5003
I2
sS'ouhu'
p5004
I2
sS'eigo'
p5005
I2
sS'szcn'
p5006
I1
sS'eigc'
p5007
I1
sS'ssds'
p5008
I1
sS'vvds'
p5009
I1
sS'zuoz'
p5010
I2
sS'ksad'
p5011
I1
sS'mqpr'
p5012
I1
sS'sunh'
p5013
I1
sS'lian'
p5014
I28
sS'liao'
p5015
I9
sS'rvip'
p5016
I1
sS'sune'
p5017
I8
sS'gjix'
p5018
I1
sS'gjiy'
p5019
I1
sS'gjiz'
p5020
I1
sS'taiz'
p5021
I2
sS'mylc'
p5022
I8
sS'taiy'
p5023
I11
sS'yrxu'
p5024
I1
sS'gjiq'
p5025
I1
sS'gjit'
p5026
I1
sS'tais'
p5027
I2
sS'nsne'
p5028
I1
sS'vmlh'
p5029
I1
sS'rclm'
p5030
I1
sS'taij'
p5031
I1
sS'taik'
p5032
I1
sS'gjin'
p5033
I49
sS'taif'
p5034
I3
sS'gjia'
p5035
I9
sS'vwod'
p5036
I1
sS'taic'
p5037
I1
sS'ihen'
p5038
I2
sS'taia'
p5039
I1
sS'ehoj'
p5040
I2
sS'ybdx'
p5041
I1
sS'bqby'
p5042
I1
sS'falw'
p5043
I1
sS'yxjp'
p5044
I1
sS'yxji'
p5045
I1
sS'ekai'
p5046
I2
sS'almi'
p5047
I1
sS'sanm'
p5048
I1
sS'sanj'
p5049
I2
sS'duyo'
p5050
I2
sS'gang'
p5051
I6
sS'lvlh'
p5052
I1
sS'lvli'
p5053
I1
sS'ybxy'
p5054
I1
sS'zerh'
p5055
I1
sS'dmys'
p5056
I1
sS'sbco'
p5057
I1
sS'dian'
p5058
I8
sS'diao'
p5059
I2
sS'ubjp'
p5060
I1
sS'unbe'
p5061
I1
sS'dcom'
p5062
I22
sS'lein'
p5063
I10
sS'wjms'
p5064
I1
sS'gzdd'
p5065
I1
sS'otou'
p5066
I5
sS'kkqi'
p5067
I1
sS'vali'
p5068
I1
sS'jxuz'
p5069
I1
sS'hasc'
p5070
I2
sS'ngno'
p5071
I1
sS'bmjp'
p5072
I1
sS'ngni'
p5073
I1
sS'deyu'
p5074
I1
sS'ngne'
p5075
I3
sS'ngnc'
p5076
I1
sS'ngnb'
p5077
I1
sS'ngna'
p5078
I2
sS'nkae'
p5079
I1
sS'ewxi'
p5080
I2
sS'iuma'
p5081
I1
sS'picn'
p5082
I1
sS'iume'
p5083
I1
sS'inwe'
p5084
I2
sS'tcwa'
p5085
I2
sS'inwa'
p5086
I5
sS'aotu'
p5087
I1
sS'henn'
p5088
I1
sS'yhny'
p5089
I2
sS'aufd'
p5090
I1
sS'xici'
p5091
I1
sS'enal'
p5092
I1
sS'aota'
p5093
I1
sS'pxia'
p5094
I1
sS'ccyf'
p5095
I1
sS'aoto'
p5096
I5
sS'aebv'
p5097
I2
sS'nnvi'
p5098
I2
sS'zhuw'
p5099
I2
sS'puke'
p5100
I6
sS'jivs'
p5101
I1
sS'gaac'
p5102
I1
sS'nrua'
p5103
I1
sS'zykz'
p5104
I1
sS'hene'
p5105
I1
sS'more'
p5106
I1
sS'aizh'
p5107
I2
sS'zhuz'
p5108
I1
sS'aizo'
p5109
I1
sS'aizc'
p5110
I2
sS'cuwa'
p5111
I1
sS'itan'
p5112
I1
sS'oyun'
p5113
I1
sS'oyul'
p5114
I9
sS'hena'
p5115
I11
sS'doom'
p5116
I1
sS'houw'
p5117
I4
sS'houp'
p5118
I7
sS'houq'
p5119
I1
sS'iymc'
p5120
I10
sS'houx'
p5121
I1
sS'houy'
p5122
I4
sS'houd'
p5123
I4
sS'houf'
p5124
I3
sS'houb'
p5125
I10
sS'mali'
p5126
I1
sS'houm'
p5127
I1
sS'avfu'
p5128
I1
sS'houj'
p5129
I1
sS'luda'
p5130
I1
sS'aguo'
p5131
I3
sS'axin'
p5132
I1
sS'eide'
p5133
I1
sS'bogu'
p5134
I2
sS'axik'
p5135
I1
sS'axia'
p5136
I1
sS'qxbc'
p5137
I1
sS'meha'
p5138
I2
sS'bogc'
p5139
I1
sS'zhuh'
p5140
I2
sS'axit'
p5141
I1
sS'bian'
p5142
I2
sS'anre'
p5143
I1
sS'bogo'
p5144
I1
sS'hech'
p5145
I4
sS'ucnh'
p5146
I2
sS'ucnn'
p5147
I6
sS'nwan'
p5148
I18
sS'qwkc'
p5149
I2
sS'ucne'
p5150
I1
sS'mapv'
p5151
I2
sS'zhuo'
p5152
I1
sS'stiy'
p5153
I1
sS'rdst'
p5154
I1
sS'qiba'
p5155
I1
sS'ifsc'
p5156
I1
sS'qibh'
p5157
I1
sS'ofan'
p5158
I1
sS'angs'
p5159
I30
sS'khwp'
p5160
I1
sS'nhtc'
p5161
I2
sS'ckyj'
p5162
I1
sS'ofap'
p5163
I1
sS'qibu'
p5164
I1
sS'byqg'
p5165
I1
sS'xuxu'
p5166
I1
sS'ienv'
p5167
I2
sS'ilvl'
p5168
I1
sS'uzen'
p5169
I4
sS'ecey'
p5170
I1
sS'uzel'
p5171
I1
sS'iena'
p5172
I4
sS'nltj'
p5173
I1
sS'tkch'
p5174
I1
sS'ilvb'
p5175
I3
sS'nfaj'
p5176
I1
sS'hbco'
p5177
I10
sS'nfan'
p5178
I4
sS'ncit'
p5179
I2
sS'yibo'
p5180
I1
sS'ppmh'
p5181
I1
sS'qqrt'
p5182
I4
sS'abzb'
p5183
I1
sS'ehnz'
p5184
I1
sS'loza'
p5185
I1
sS'qznm'
p5186
I1
sS'ctpf'
p5187
I1
sS'panj'
p5188
I1
sS'nfap'
p5189
I1
sS'cker'
p5190
I1
sS'gcoc'
p5191
I1
sS'zbsd'
p5192
I1
sS'omhl'
p5193
I1
sS'gfcc'
p5194
I1
sS'gcom'
p5195
I39
sS'duxi'
p5196
I3
sS'duxk'
p5197
I1
sS'epoj'
p5198
I1
sS'saom'
p5199
I1
sS'haob'
p5200
I4
sS'lmtk'
p5201
I1
sS'ajzd'
p5202
I2
sS'dqpw'
p5203
I1
sS'zhej'
p5204
I1
sS'dedu'
p5205
I1
sS'mmys'
p5206
I1
sS'zhen'
p5207
I71
sS'odia'
p5208
I4
sS'rank'
p5209
I1
sS'dqpl'
p5210
I1
sS'uona'
p5211
I1
sS'ltjz'
p5212
I7
sS'puhw'
p5213
I1
sS'pfze'
p5214
I1
sS'pfzb'
p5215
I10
sS'njjc'
p5216
I1
sS'jsdw'
p5217
I1
sS'urvi'
p5218
I1
sS'idem'
p5219
I1
sS'idek'
p5220
I1
sS'ideg'
p5221
I1
sS'qhay'
p5222
I1
sS'tiho'
p5223
I1
sS'gwom'
p5224
I2
sS'ngmi'
p5225
I1
sS'jdmy'
p5226
I1
sS'idez'
p5227
I2
sS'ngma'
p5228
I11
sS'gwoa'
p5229
I1
sS'ngme'
p5230
I1
sS'suoj'
p5231
I2
sS'tdbj'
p5232
I1
sS'sdlf'
p5233
I5
sS'haow'
p5234
I2
sS'ddha'
p5235
I2
sS'gdas'
p5236
I1
sS'vlvf'
p5237
I1
sS'pcpx'
p5238
I1
sS'gdaz'
p5239
I1
sS'vyfm'
p5240
I1
sS'rmei'
p5241
I1
sS'hzom'
p5242
I1
sS'gdaf'
p5243
I1
sS'awin'
p5244
I3
sS'gdai'
p5245
I8
sS'gdao'
p5246
I2
sS'zjcj'
p5247
I1
sS'zjco'
p5248
I3
sS'gjhs'
p5249
I1
sS'omin'
p5250
I1
sS'cpxi'
p5251
I1
sS'jpbf'
p5252
I10
sS'omid'
p5253
I2
sS'mpsz'
p5254
I1
sS'vgas'
p5255
I1
sS'guae'
p5256
I2
sS'ujia'
p5257
I8
sS'ujin'
p5258
I1
sS'guan'
p5259
I26
sS'ujij'
p5260
I1
sS'nxhs'
p5261
I1
sS'ujih'
p5262
I1
sS'kexi'
p5263
I3
sS'ujiu'
p5264
I2
sS'dong'
p5265
I6
sS'guap'
p5266
I1
sS'cadi'
p5267
I1
sS'guaz'
p5268
I1
sS'ujix'
p5269
I1
sS'dlgj'
p5270
I1
sS'tati'
p5271
I1
sS'huzu'
p5272
I2
sS'equn'
p5273
I1
sS'aveb'
p5274
I1
sS'hote'
p5275
I1
sS'mama'
p5276
I3
sS'kewa'
p5277
I2
sS'huzh'
p5278
I1
sS'ytjz'
p5279
I1
sS'daho'
p5280
I2
sS'lehn'
p5281
I2
sS'pwxu'
p5282
I1
sS'hibo'
p5283
I7
sS'wyin'
p5284
I4
sS'hibi'
p5285
I4
sS'ubiz'
p5286
I1
sS'qmgt'
p5287
I1
sS'otnc'
p5288
I10
sS'ghzj'
p5289
I1
sS'bhsb'
p5290
I1
sS'tgfu'
p5291
I1
sS'ubia'
p5292
I1
sS'fhth'
p5293
I1
sS'wyud'
p5294
I1
sS'agez'
p5295
I1
sS'agey'
p5296
I1
sS'ufei'
p5297
I1
sS'aget'
p5298
I1
sS'cept'
p5299
I2
sS'agen'
p5300
I1
sS'nhui'
p5301
I6
sS'agej'
p5302
I1
sS'ufey'
p5303
I1
sS'vnvh'
p5304
I1
sS'nhua'
p5305
I5
sS'nfug'
p5306
I1
sS'miao'
p5307
I1
sS'mian'
p5308
I5
sS'cyxp'
p5309
I1
sS'bfuc'
p5310
I10
sS'ubuy'
p5311
I1
sS'fxuz'
p5312
I2
sS'play'
p5313
I10
sS'xiba'
p5314
I2
sS'yaww'
p5315
I1
sS'qdpw'
p5316
I6
sS'mosn'
p5317
I1
sS'xibi'
p5318
I1
sS'essc'
p5319
I10
sS'hstb'
p5320
I1
sS'fdwa'
p5321
I1
sS'esso'
p5322
I1
sS'puji'
p5323
I1
sS'gbts'
p5324
I3
sS'jiqu'
p5325
I1
sS'jiqi'
p5326
I3
sS'betz'
p5327
I1
sS'uaiy'
p5328
I1
sS'gabi'
p5329
I1
sS'aeco'
p5330
I2
sS'djfd'
p5331
I1
sS'eshe'
p5332
I2
sS'srfp'
p5333
I3
sS'gshi'
p5334
I8
sS'vebe'
p5335
I2
sS'gsho'
p5336
I8
sS'gsha'
p5337
I12
sS'uoot'
p5338
I1
sS'gshe'
p5339
I7
sS'odhe'
p5340
I1
sS'njky'
p5341
I1
sS'gshu'
p5342
I5
sS'anqf'
p5343
I1
sS'ruif'
p5344
I1
sS'iioh'
p5345
I1
sS'ukov'
p5346
I1
sS'eyij'
p5347
I2
sS'anqu'
p5348
I2
sS'ntic'
p5349
I1
sS'ress'
p5350
I11
sS'kpga'
p5351
I1
sS'eyiz'
p5352
I1
sS'dwmp'
p5353
I10
sS'buhu'
p5354
I2
sS'silt'
p5355
I1
sS'uasi'
p5356
I1
sS'adcn'
p5357
I7
sS'adco'
p5358
I5
sS'yjcn'
p5359
I9
sS'xdqp'
p5360
I1
sS'meiy'
p5361
I1
sS'bofa'
p5362
I2
sS'eier'
p5363
I1
sS'fufy'
p5364
I1
sS'meis'
p5365
I4
sS'meit'
p5366
I2
sS'ouji'
p5367
I3
sS'dbji'
p5368
I1
sS'orcn'
p5369
I1
sS'ucom'
p5370
I55
sS'dycn'
p5371
I1
sS'neow'
p5372
I1
sS'mtzm'
p5373
I1
sS'boza'
p5374
I1
sS'emaz'
p5375
I1
sS'siph'
p5376
I1
sS'sipi'
p5377
I1
sS'cbpc'
p5378
I4
sS'emag'
p5379
I1
sS'emai'
p5380
I2
sS'bdeh'
p5381
I10
sS'btpf'
p5382
I1
sS'fanb'
p5383
I2
sS'mpre'
p5384
I1
sS'ihgx'
p5385
I6
sS'ylcz'
p5386
I11
sS'knam'
p5387
I1
sS'riti'
p5388
I1
sS'fany'
p5389
I1
sS'omjc'
p5390
I2
sS'fanz'
p5391
I1
sS'ahon'
p5392
I2
sS'iako'
p5393
I1
sS'lexi'
p5394
I2
sS'fold'
p5395
I1
sS'iake'
p5396
I2
sS'tzbd'
p5397
I1
sS'ncho'
p5398
I2
sS'nche'
p5399
I2
sS'naid'
p5400
I1
sS'fdha'
p5401
I1
sS'ncha'
p5402
I17
sS'ikai'
p5403
I10
sS'ikah'
p5404
I20
sS'azzp'
p5405
I1
sS'eaie'
p5406
I1
sS'alon'
p5407
I1
sS'opai'
p5408
I5
sS'lasa'
p5409
I1
sS'alov'
p5410
I1
sS'iwcn'
p5411
I1
sS'afap'
p5412
I2
sS'gfbj'
p5413
I1
sS'ehua'
p5414
I1
sS'wnof'
p5415
I1
sS'tlsd'
p5416
I1
sS'ehui'
p5417
I1
sS'ndsc'
p5418
I1
sS'vxyx'
p5419
I1
sS'wwyu'
p5420
I1
sS'dden'
p5421
I1
sS'zete'
p5422
I1
sS'ciwj'
p5423
I1
sS'ngle'
p5424
I1
sS'nglf'
p5425
I2
sS'sfux'
p5426
I1
sS'laob'
p5427
I1
sS'nglm'
p5428
I1
sS'nglo'
p5429
I37
sS'ntay'
p5430
I2
sS'laok'
p5431
I2
sS'nglu'
p5432
I8
sS'nglv'
p5433
I2
sS'nglq'
p5434
I1
sS'wjot'
p5435
I10
sS'ntao'
p5436
I4
sS'ntan'
p5437
I8
sS'ntai'
p5438
I4
sS'laoz'
p5439
I1
sS'uosi'
p5440
I1
sS'uosh'
p5441
I3
sS'tdco'
p5442
I10
sS'eduv'
p5443
I1
sS'ayxv'
p5444
I1
sS'qide'
p5445
I1
sS'gwlc'
p5446
I1
sS'edub'
p5447
I3
sS'educ'
p5448
I29
sS'ayxx'
p5449
I1
sS'nqqz'
p5450
I1
sS'hkco'
p5451
I1
sS'heyi'
p5452
I1
sS'dxea'
p5453
I1
sS'iuco'
p5454
I5
sS'bilu'
p5455
I2
sS'piao'
p5456
I14
sS'iuch'
p5457
I3
sS'engh'
p5458
I6
sS'engj'
p5459
I3
sS'engk'
p5460
I2
sS'xiaf'
p5461
I1
sS'engm'
p5462
I1
sS'engn'
p5463
I1
sS'enga'
p5464
I3
sS'xiah'
p5465
I1
sS'owen'
p5466
I10
sS'engd'
p5467
I19
sS'xiao'
p5468
I4
sS'engf'
p5469
I1
sS'engg'
p5470
I8
sS'engx'
p5471
I19
sS'engy'
p5472
I9
sS'engz'
p5473
I12
sS'xiaw'
p5474
I1
sS'bbfm'
p5475
I2
sS'engp'
p5476
I7
sS'engq'
p5477
I9
sS'engr'
p5478
I2
sS'engs'
p5479
I10
sS'engt'
p5480
I2
sS'engw'
p5481
I6
sS'oywa'
p5482
I2
sS'sdwm'
p5483
I10
sS'jipi'
p5484
I1
sS'gkin'
p5485
I3
sS'asvi'
p5486
I2
sS'nxiy'
p5487
I1
sS'aixu'
p5488
I1
sS'chbc'
p5489
I10
sS'nxit'
p5490
I1
sS'sxkd'
p5491
I3
sS'keyi'
p5492
I1
sS'nxin'
p5493
I34
sS'nxia'
p5494
I7
sS'bdxg'
p5495
I2
sS'nxic'
p5496
I1
sS'nxib'
p5497
I3
sS'nxie'
p5498
I6
sS'nxid'
p5499
I2
sS'nxif'
p5500
I2
sS'eleb'
p5501
I1
sS'noli'
p5502
I1
sS'tugu'
p5503
I1
sS'iwen'
p5504
I1
sS'howy'
p5505
I1
sS'iwei'
p5506
I4
sS'toie'
p5507
I1
sS'ouwj'
p5508
I3
sS'nkgc'
p5509
I1
sS'ouwa'
p5510
I1
sS'ebgy'
p5511
I1
sS'ghnz'
p5512
I1
sS'nxun'
p5513
I3
sS'untu'
p5514
I1
sS'eiji'
p5515
I3
sS'simu'
p5516
I1
sS'adbf'
p5517
I1
sS'ibjl'
p5518
I1
sS'nxua'
p5519
I5
sS'tyco'
p5520
I8
sS'unta'
p5521
I4
sS'wewp'
p5522
I1
sS'izib'
p5523
I1
sS'qapl'
p5524
I1
sS'boeb'
p5525
I1
sS'izig'
p5526
I2
sS'eerc'
p5527
I10
sS'eerd'
p5528
I1
sS'uchu'
p5529
I2
sS'ggam'
p5530
I2
sS'orbt'
p5531
I1
sS'ggan'
p5532
I3
sS'ucha'
p5533
I8
sS'snoi'
p5534
I1
sS'uche'
p5535
I2
sS'ssco'
p5536
I20
sS'ufdi'
p5537
I2
sS'uzcc'
p5538
I1
sS'yqwk'
p5539
I2
sS'ikvi'
p5540
I1
sS'iela'
p5541
I1
sS'jgji'
p5542
I1
sS'ufdq'
p5543
I10
sS'ufdv'
p5544
I2
sS'ulvi'
p5545
I2
sS'kgsc'
p5546
I1
sS'ptsi'
p5547
I1
sS'ubts'
p5548
I1
sS'hgjb'
p5549
I1
sS'ckco'
p5550
I1
sS'pali'
p5551
I1
sS'ncom'
p5552
I19
sS'iaha'
p5553
I2
sS'ikbl'
p5554
I1
sS'ptoo'
p5555
I3
sS'afmy'
p5556
I1
sS'eane'
p5557
I1
sS'mrst'
p5558
I1
sS'epin'
p5559
I3
sS'tfya'
p5560
I2
sS'eanp'
p5561
I1
sS'pozh'
p5562
I2
sS'epie'
p5563
I1
sS'gfen'
p5564
I2
sS'xiak'
p5565
I2
sS'gsip'
p5566
I1
sS'ciyi'
p5567
I1
sS'uwan'
p5568
I10
sS'aadh'
p5569
I1
sS'ykzf'
p5570
I1
sS'gsiz'
p5571
I1
sS'gsil'
p5572
I1
sS'oacn'
p5573
I1
sS'kfsw'
p5574
I1
sS'nuyl'
p5575
I1
sS'ndel'
p5576
I1
sS'uart'
p5577
I4
sS'ndec'
p5578
I10
sS'ndee'
p5579
I1
sS'nded'
p5580
I2
sS'anpr'
p5581
I1
sS'anpu'
p5582
I1
sS'anpw'
p5583
I1
sS'bisi'
p5584
I1
sS'kaer'
p5585
I1
sS'ytom'
p5586
I1
sS'inte'
p5587
I2
sS'btyh'
p5588
I1
sS'wliy'
p5589
I2
sS'inta'
p5590
I4
sS'happ'
p5591
I1
sS'bgyl'
p5592
I1
sS'into'
p5593
I1
sS'bgyf'
p5594
I1
sS'edtu'
p5595
I1
sS'edtt'
p5596
I1
sS'bgyx'
p5597
I1
sS'bzji'
p5598
I1
sS'evst'
p5599
I3
sS'fccn'
p5600
I1
sS'kuzh'
p5601
I1
sS'hexi'
p5602
I10
sS'pylc'
p5603
I1
sS'qwno'
p5604
I1
sS'hexu'
p5605
I1
sS'ejzd'
p5606
I2
sS'gjjc'
p5607
I1
sS'linx'
p5608
I1
sS'boyi'
p5609
I1
sS'boyo'
p5610
I1
sS'atou'
p5611
I1
sS'boyu'
p5612
I5
sS'ling'
p5613
I2
sS'linf'
p5614
I2
sS'line'
p5615
I2
sS'omky'
p5616
I1
sS'fdie'
p5617
I2
sS'eish'
p5618
I2
sS'jbyq'
p5619
I1
sS'xiam'
p5620
I2
sS'nbiw'
p5621
I1
sS'naei'
p5622
I2
sS'aiyu'
p5623
I32
sS'guch'
p5624
I1
sS'chan'
p5625
I34
sS'chao'
p5626
I4
sS'nbiy'
p5627
I2
sS'cham'
p5628
I10
sS'aiya'
p5629
I11
sS'chas'
p5630
I1
sS'teze'
p5631
I1
sS'nbic'
p5632
I1
sS'ziww'
p5633
I1
sS'ibuh'
p5634
I2
sS'nksc'
p5635
I1
sS'aiyi'
p5636
I12
sS'xunk'
p5637
I1
sS'ibud'
p5638
I1
sS'gucq'
p5639
I1
sS'aiyo'
p5640
I11
sS'tezh'
p5641
I1
sS'tark'
p5642
I1
sS'nbux'
p5643
I2
sS'irtm'
p5644
I4
sS'exuz'
p5645
I2
sS'iguo'
p5646
I6
sS'ifei'
p5647
I2
sS'ifen'
p5648
I2
sS'hxcn'
p5649
I1
sS'leng'
p5650
I2
sS'olss'
p5651
I1
sS'mmks'
p5652
I1
sS'gzai'
p5653
I1
sS'ifyl'
p5654
I1
sS'etuy'
p5655
I1
sS'akca'
p5656
I1
sS'tubj'
p5657
I1
sS'lang'
p5658
I3
sS'ngka'
p5659
I39
sS'land'
p5660
I3
sS'cwtk'
p5661
I2
sS'ngkf'
p5662
I1
sS'ngkg'
p5663
I2
sS'gfyl'
p5664
I1
sS'ngki'
p5665
I3
sS'ghxc'
p5666
I1
sS'uife'
p5667
I1
sS'jhsx'
p5668
I1
sS'qprg'
p5669
I1
sS'ngks'
p5670
I1
sS'ngku'
p5671
I2
sS'lanq'
p5672
I1
sS'sljc'
p5673
I1
sS'ngky'
p5674
I2
sS'lanx'
p5675
I1
sS'bfwa'
p5676
I2
sS'nzho'
p5677
I5
sS'nzhi'
p5678
I3
sS'qiao'
p5679
I3
sS'qian'
p5680
I19
sS'nzhe'
p5681
I2
sS'nzha'
p5682
I2
sS'kcha'
p5683
I1
sS'szsd'
p5684
I1
sS'xunv'
p5685
I1
sS'nzhu'
p5686
I2
sS'kchs'
p5687
I1
sS'vvzf'
p5688
I1
sS'outa'
p5689
I2
sS'sxum'
p5690
I1
sS'uliy'
p5691
I2
sS'bsdf'
p5692
I1
sS'yuty'
p5693
I8
sS'ausc'
p5694
I20
sS'fxsy'
p5695
I1
sS'bsdj'
p5696
I1
sS'aoww'
p5697
I2
sS'jish'
p5698
I4
sS'xzer'
p5699
I1
sS'mous'
p5700
I1
sS'mwan'
p5701
I3
sS'aowe'
p5702
I9
sS'aowa'
p5703
I3
sS'aoyi'
p5704
I4
sS'udin'
p5705
I2
sS'udij'
p5706
I1
sS'gxco'
p5707
I6
sS'aean'
p5708
I1
sS'wuxi'
p5709
I1
sS'udiz'
p5710
I3
sS'zzbf'
p5711
I1
sS'aead'
p5712
I1
sS'udip'
p5713
I1
sS'udiq'
p5714
I1
sS'nnqm'
p5715
I1
sS'xiaz'
p5716
I6
sS'gojo'
p5717
I1
sS'cnnf'
p5718
I6
sS'vbxy'
p5719
I1
sS'lmin'
p5720
I1
sS'oorg'
p5721
I3
sS'izhe'
p5722
I9
sS'izha'
p5723
I2
sS'kafs'
p5724
I5
sS'izho'
p5725
I6
sS'izhi'
p5726
I4
sS'zhus'
p5727
I9
sS'izhu'
p5728
I3
sS'ytnl'
p5729
I1
sS'eyou'
p5730
I4
sS'kafm'
p5731
I8
sS'zpfz'
p5732
I1
sS'ibic'
p5733
I3
sS'ibif'
p5734
I1
sS'mkan'
p5735
I1
sS'ibin'
p5736
I2
sS'wexc'
p5737
I10
sS'skyj'
p5738
I1
sS'ibiz'
p5739
I1
sS'sing'
p5740
I4
sS'dwan'
p5741
I4
sS'sina'
p5742
I1
sS'daoy'
p5743
I1
sS'ygsc'
p5744
I10
sS'anma'
p5745
I2
sS'agga'
p5746
I2
sS'ucit'
p5747
I1
sS'mawa'
p5748
I1
sS'oczx'
p5749
I1
sS'oule'
p5750
I2
sS'ggnc'
p5751
I1
sS'jlme'
p5752
I1
sS'dbhs'
p5753
I1
sS'oipb'
p5754
I2
sS'asad'
p5755
I1
sS'pdsp'
p5756
I1
sS'tuzz'
p5757
I1
sS'vipt'
p5758
I1
sS'boxi'
p5759
I1
sS'ddxu'
p5760
I1
sS'vipq'
p5761
I20
sS'fkrh'
p5762
I10
sS'rivi'
p5763
I5
sS'emor'
p5764
I1
sS'jpaj'
p5765
I2
sS'ziji'
p5766
I2
sS'vipc'
p5767
I1
sS'boxt'
p5768
I1
sS'siry'
p5769
I1
sS'vipj'
p5770
I10
sS'enqx'
p5771
I1
sS'ucun'
p5772
I5
sS'ebyq'
p5773
I1
sS'gvst'
p5774
I4
sS'jgtp'
p5775
I1
sS'cfjm'
p5776
I1
sS'benz'
p5777
I1
sS'ndia'
p5778
I4
sS'babi'
p5779
I2
sS'ncnw'
p5780
I1
sS'yucn'
p5781
I1
sS'ikco'
p5782
I8
sS'naom'
p5783
I1
sS'ahqm'
p5784
I2
sS'babz'
p5785
I1
sS'alih'
p5786
I2
sS'xlch'
p5787
I1
sS'lchh'
p5788
I1
sS'alim'
p5789
I1
sS'alin'
p5790
I2
sS'tbst'
p5791
I1
sS'aliy'
p5792
I10
sS'aihu'
p5793
I7
sS'poue'
p5794
I1
sS'gyxj'
p5795
I1
sS'aliu'
p5796
I1
sS'phon'
p5797
I10
sS'lemo'
p5798
I1
sS'ehwa'
p5799
I2
sS'benu'
p5800
I1
sS'hudi'
p5801
I2
sS'pawa'
p5802
I1
sS'leme'
p5803
I1
sS'abck'
p5804
I1
sS'pwea'
p5805
I1
sS'beng'
p5806
I1
sS'sliy'
p5807
I1
sS'ngjc'
p5808
I2
sS'bhvu'
p5809
I2
sS'bhvv'
p5810
I1
sS'bhvx'
p5811
I1
sS'ngjj'
p5812
I1
sS'ngji'
p5813
I68
sS'kqcs'
p5814
I1
sS'kqcn'
p5815
I1
sS'gfxs'
p5816
I1
sS'bcco'
p5817
I1
sS'usuo'
p5818
I2
sS'ngjz'
p5819
I2
sS'ngjx'
p5820
I1
sS'uigu'
p5821
I2
sS'fcbt'
p5822
I1
sS'crsd'
p5823
I20
sS'insh'
p5824
I9
sS'fran'
p5825
I1
sS'fuha'
p5826
I2
sS'ngli'
p5827
I28
sS'lgjw'
p5828
I1
sS'fcbh'
p5829
I1
sS'qwom'
p5830
I1
sS'pyco'
p5831
I20
sS'hxuz'
p5832
I1
sS'bind'
p5833
I1
sS'wqec'
p5834
I1
sS'hzjm'
p5835
I1
sS'dxgb'
p5836
I2
sS'bint'
p5837
I3
sS'pycs'
p5838
I1
sS'yegc'
p5839
I2
sS'enet'
p5840
I1
sS'mutf'
p5841
I1
sS'enep'
p5842
I1
sS'mjcr'
p5843
I2
sS'youm'
p5844
I1
sS'paiq'
p5845
I2
sS'aopi'
p5846
I1
sS'kapw'
p5847
I1
sS'hwat'
p5848
I1
sS'jial'
p5849
I16
sS'apla'
p5850
I1
sS'wiqf'
p5851
I1
sS'pxme'
p5852
I1
sS'jiam'
p5853
I1
sS'rabs'
p5854
I1
sS'zzpf'
p5855
I1
sS'wuyu'
p5856
I1
sS'youh'
p5857
I3
sS'paiv'
p5858
I1
sS'vwan'
p5859
I1
sS'aefc'
p5860
I1
sS'aefd'
p5861
I1
sS'ibts'
p5862
I2
sS'youb'
p5863
I2
sS'kist'
p5864
I1
sS'bjpb'
p5865
I2
sS'nbjl'
p5866
I1
sS'iyih'
p5867
I4
sS'pgam'
p5868
I1
sS'iyin'
p5869
I13
sS'ebei'
p5870
I2
sS'iyid'
p5871
I1
sS'iyiy'
p5872
I1
sS'rhjg'
p5873
I1
sS'ebet'
p5874
I2
sS'anzz'
p5875
I1
sS'iyiq'
p5876
I1
sS'uaih'
p5877
I1
sS'ibhe'
p5878
I1
sS'zhuc'
p5879
I24
sS'unzh'
p5880
I2
sS'wsnc'
p5881
I1
sS'ggon'
p5882
I1
sS'huco'
p5883
I13
sS'tuyh'
p5884
I4
sS'huce'
p5885
I14
sS'ceso'
p5886
I11
sS'sncn'
p5887
I1
sS'jlji'
p5888
I1
sS'uaib'
p5889
I2
sS'ofei'
p5890
I1
sS'shus'
p5891
I1
sS'nzig'
p5892
I1
sS'iebe'
p5893
I1
sS'fhsx'
p5894
I10
sS'shuc'
p5895
I3
sS'shua'
p5896
I6
sS'shuo'
p5897
I2
sS'amaw'
p5898
I1
sS'shui'
p5899
I2
sS'mida'
p5900
I5
sS'fqdp'
p5901
I6
sS'midu'
p5902
I10
sS'anli'
p5903
I6
sS'yinx'
p5904
I32
sS'yiny'
p5905
I5
sS'yins'
p5906
I3
sS'ubwj'
p5907
I1
sS'mvip'
p5908
I1
sS'ying'
p5909
I12
sS'iafa'
p5910
I1
sS'gyyx'
p5911
I1
sS'ulur'
p5912
I1
sS'gyyc'
p5913
I1
sS'ealm'
p5914
I1
sS'rtzm'
p5915
I1
sS'zhit'
p5916
I1
sS'zhip'
p5917
I1
sS'zhis'
p5918
I2
sS'ukjj'
p5919
I1
sS'zhix'
p5920
I1
sS'zhiz'
p5921
I2
sS'zhid'
p5922
I2
sS'binn'
p5923
I3
sS'iuzz'
p5924
I1
sS'zhib'
p5925
I6
sS'zhil'
p5926
I1
sS'cxco'
p5927
I1
sS'zhij'
p5928
I4
sS'ipai'
p5929
I31
sS'kttv'
p5930
I1
sS'ktia'
p5931
I1
sS'izou'
p5932
I1
sS'uapa'
p5933
I1
sS'iche'
p5934
I10
sS'idar'
p5935
I4
sS'idas'
p5936
I1
sS'idat'
p5937
I1
sS'icha'
p5938
I1
sS'idax'
p5939
I2
sS'ahco'
p5940
I20
sS'ichu'
p5941
I5
sS'pbiz'
p5942
I2
sS'idad'
p5943
I1
sS'idaf'
p5944
I1
sS'inrt'
p5945
I2
sS'idah'
p5946
I2
sS'idai'
p5947
I6
sS'trpw'
p5948
I1
sS'mblo'
p5949
I1
sS'atic'
p5950
I1
sS'lila'
p5951
I1
sS'hoda'
p5952
I1
sS'awei'
p5953
I1
sS'eryi'
p5954
I2
sS'osdw'
p5955
I1
sS'atin'
p5956
I1
sS'enbo'
p5957
I3
sS'hefe'
p5958
I1
sS'yxpl'
p5959
I1
sS'gdes'
p5960
I2
sS'pyby'
p5961
I1
sS'gdez'
p5962
I2
sS'zhul'
p5963
I2
sS'jind'
p5964
I1
sS'facn'
p5965
I2
sS'myap'
p5966
I1
sS'utli'
p5967
I1
sS'apia'
p5968
I7
sS'vpds'
p5969
I1
sS'aiwu'
p5970
I1
sS'nkqc'
p5971
I1
sS'nage'
p5972
I1
sS'qjgt'
p5973
I1
sS'yycn'
p5974
I2
sS'aiwe'
p5975
I1
sS'aiwa'
p5976
I6
sS'daxi'
p5977
I1
sS'oufu'
p5978
I2
sS'xkdg'
p5979
I10
sS'noip'
p5980
I2
sS'eqiu'
p5981
I3
sS'tudi'
p5982
I1
sS'tudo'
p5983
I1
sS'wktf'
p5984
I9
sS'lobl'
p5985
I1
sS'lvip'
p5986
I2
sS'gzcc'
p5987
I2
sS'owcn'
p5988
I1
sS'hifh'
p5989
I1
sS'ehvy'
p5990
I2
sS'hwan'
p5991
I2
sS'glvd'
p5992
I2
sS'ehvu'
p5993
I1
sS'akeh'
p5994
I2
sS'ehvq'
p5995
I1
sS'lelt'
p5996
I1
sS'ngin'
p5997
I10
sS'reiu'
p5998
I2
sS'bzjp'
p5999
I1
sS'pyfh'
p6000
I1
sS'edvi'
p6001
I4
sS'awan'
p6002
I5
sS'jinc'
p6003
I3
sS'uida'
p6004
I2
sS'uovs'
p6005
I1
sS'gyez'
p6006
I2
sS'gtiy'
p6007
I1
sS'bfya'
p6008
I1
sS'akyu'
p6009
I1
sS'nlyq'
p6010
I1
sS'tqpw'
p6011
I3
sS'aopa'
p6012
I5
sS'shto'
p6013
I1
sS'miel'
p6014
I1
sS'apol'
p6015
I1
sS'yash'
p6016
I10
sS'hsxc'
p6017
I10
sS'xigu'
p6018
I1
sS'tmxu'
p6019
I1
sS'hsxz'
p6020
I1
sS'uebi'
p6021
I1
sS'yuji'
p6022
I1
sS'ends'
p6023
I1
sS'endu'
p6024
I6
sS'lvfu'
p6025
I1
sS'xifa'
p6026
I2
sS'enda'
p6027
I4
sS'aoqi'
p6028
I4
sS'weai'
p6029
I1
sS'wcbm'
p6030
I1
sS'xifu'
p6031
I10
sS'uxbb'
p6032
I1
sS'zmyq'
p6033
I1
sS'zcco'
p6034
I10
sS'axuz'
p6035
I3
sS'zccy'
p6036
I1
sS'zmya'
p6037
I1
sS'siwe'
p6038
I4
sS'gxam'
p6039
I1
sS'aaco'
p6040
I1
sS'aacn'
p6041
I1
sS'cnht'
p6042
I2
sS'jinn'
p6043
I1
sS'uaqi'
p6044
I1
sS'bmzs'
p6045
I1
sS'nnoi'
p6046
I1
sS'rumb'
p6047
I1
sS'igez'
p6048
I2
sS'nnoc'
p6049
I1
sS'vlhv'
p6050
I1
sS'jsoj'
p6051
I1
sS'uhom'
p6052
I3
sS'qipa'
p6053
I29
sS'gcen'
p6054
I1
sS'kaha'
p6055
I1
sS'kahc'
p6056
I20
sS'iboh'
p6057
I1
sS'tyhn'
p6058
I2
sS'bdcn'
p6059
I2
sS'ibob'
p6060
I1
sS'iboc'
p6061
I4
sS'ibog'
p6062
I1
sS'ibox'
p6063
I1
sS'luob'
p6064
I2
sS'unyi'
p6065
I2
sS'luod'
p6066
I2
sS'unyo'
p6067
I1
sS'iboq'
p6068
I4
sS'adov'
p6069
I1
sS'ibow'
p6070
I1
sS'hubo'
p6071
I1
sS'qihg'
p6072
I6
sS'huba'
p6073
I2
sS'xbsh'
p6074
I1
sS'zjpb'
p6075
I2
sS'ocxc'
p6076
I1
sS'nwln'
p6077
I1
sS'hubw'
p6078
I1
sS'ouni'
p6079
I1
sS'jftp'
p6080
I1
sS'cbtz'
p6081
I1
sS'ojzj'
p6082
I3
sS'sitn'
p6083
I2
sS'ojzd'
p6084
I2
sS'ghua'
p6085
I15
sS'uton'
p6086
I1
sS'bqha'
p6087
I1
sS'qeco'
p6088
I10
sS'qecn'
p6089
I3
sS'sszd'
p6090
I1
sS'oobc'
p6091
I1
sS'xeyf'
p6092
I1
sS'umys'
p6093
I1
sS'utou'
p6094
I2
sS'sada'
p6095
I1
sS'sadc'
p6096
I5
sS'upof'
p6097
I2
sS'sade'
p6098
I1
sS'upod'
p6099
I10
sS'peil'
p6100
I1
sS'sado'
p6101
I1
sS'upor'
p6102
I2
sS'upoq'
p6103
I2
sS'xyaf'
p6104
I1
sS'tzfm'
p6105
I1
sS'upoz'
p6106
I2
sS'iage'
p6107
I4
sS'aivs'
p6108
I1
sS'peix'
p6109
I1
sS'angx'
p6110
I7
sS'zbxy'
p6111
I1
sS'uzhi'
p6112
I1
sS'iouc'
p6113
I10
sS'eixu'
p6114
I1
sS'lliu'
p6115
I2
sS'abad'
p6116
I1
sS'ngci'
p6117
I2
sS'glur'
p6118
I4
sS'gluo'
p6119
I4
sS'lesh'
p6120
I1
sS'ntez'
p6121
I1
sS'ijin'
p6122
I8
sS'tong'
p6123
I6
sS'ngho'
p6124
I4
sS'edyk'
p6125
I1
sS'ngha'
p6126
I3
sS'gyfh'
p6127
I1
sS'nter'
p6128
I1
sS'nghe'
p6129
I3
sS'cjdm'
p6130
I1
sS'ijie'
p6131
I9
sS'nghx'
p6132
I1
sS'ijiy'
p6133
I1
sS'fevi'
p6134
I1
sS'nten'
p6135
I1
sS'ghej'
p6136
I1
sS'ijis'
p6137
I3
sS'uswa'
p6138
I1
sS'iuga'
p6139
I1
sS'inqi'
p6140
I4
sS'inqf'
p6141
I1
sS'desu'
p6142
I2
sS'zens'
p6143
I1
sS'nmzx'
p6144
I1
sS'uowc'
p6145
I1
sS'uyan'
p6146
I1
sS'iugu'
p6147
I1
sS'aopu'
p6148
I1
sS'ticn'
p6149
I1
sS'lika'
p6150
I1
sS'pfco'
p6151
I3
sS'xuzh'
p6152
I45
sS'pyae'
p6153
I2
sS'soft'
p6154
I2
sS'kyul'
p6155
I1
sS'haib'
p6156
I2
sS'xies'
p6157
I2
sS'haid'
p6158
I1
sS'owan'
p6159
I6
sS'xiez'
p6160
I2
sS'enkq'
p6161
I1
sS'hail'
p6162
I1
sS'xiey'
p6163
I2
sS'hais'
p6164
I1
sS'haip'
p6165
I1
sS'aedu'
p6166
I2
sS'xien'
p6167
I6
sS'enkf'
p6168
I1
sS'enkg'
p6169
I1
sS'xiej'
p6170
I2
sS'enka'
p6171
I1
sS'rgcn'
p6172
I20
sS'jojo'
p6173
I1
sS'ogep'
p6174
I2
sS'sdsd'
p6175
I1
sS'dagu'
p6176
I1
sS'bjrt'
p6177
I1
sS'puei'
p6178
I4
sS'grrq'
p6179
I2
sS'hvxy'
p6180
I1
sS'aitu'
p6181
I1
sS'gufd'
p6182
I1
sS'gufa'
p6183
I1
sS'aita'
p6184
I1
sS'aite'
p6185
I1
sS'elyu'
p6186
I1
sS'iwai'
p6187
I1
sS'iwan'
p6188
I8
sS'iuhe'
p6189
I17
sS'tpwm'
p6190
I1
sS'tomi'
p6191
I1
sS'tpwo'
p6192
I2
sS'mspy'
p6193
I2
sS'irin'
p6194
I1
sS'ngco'
p6195
I36
sS'tsin'
p6196
I4
sS'lunt'
p6197
I4
sS'luny'
p6198
I2
sS'lunb'
p6199
I1
sS'fsdl'
p6200
I5
sS'szli'
p6201
I1
sS'huar'
p6202
I4
sS'huas'
p6203
I1
sS'huax'
p6204
I1
sS'huay'
p6205
I7
sS'huaf'
p6206
I1
sS'huad'
p6207
I1
sS'ggmf'
p6208
I1
sS'smin'
p6209
I1
sS'huan'
p6210
I38
sS'puta'
p6211
I1
sS'psky'
p6212
I1
sS'mazc'
p6213
I1
sS'glia'
p6214
I22
sS'glik'
p6215
I1
sS'vdej'
p6216
I2
sS'glin'
p6217
I1
sS'aidi'
p6218
I4
sS'coky'
p6219
I1
sS'gliu'
p6220
I2
sS'gliz'
p6221
I2
sS'ooxz'
p6222
I1
sS'ewpw'
p6223
I1
sS'yuku'
p6224
I2
sS'aore'
p6225
I1
sS'yapc'
p6226
I1
sS'sxzw'
p6227
I1
sS'bhhy'
p6228
I1
sS'yapr'
p6229
I10
sS'banl'
p6230
I1
sS'baod'
p6231
I1
sS'baox'
p6232
I3
sS'baoy'
p6233
I1
sS'ppsk'
p6234
I1
sS'baos'
p6235
I4
sS'baop'
p6236
I1
sS'baow'
p6237
I9
sS'baot'
p6238
I2
sS'adai'
p6239
I2
sS'zuca'
p6240
I1
sS'zxsc'
p6241
I10
sS'ouma'
p6242
I2
sS'zhou'
p6243
I26
sS'okyj'
p6244
I1
sS'oume'
p6245
I1
sS'gsmc'
p6246
I1
sS'zhon'
p6247
I16
sS'uhnz'
p6248
I1
sS'zzyi'
p6249
I3
sS'kaiy'
p6250
I1
sS'kaix'
p6251
I2
sS'jsnw'
p6252
I1
sS'kaiu'
p6253
I1
sS'kait'
p6254
I1
sS'vlia'
p6255
I1
sS'ipco'
p6256
I1
sS'cuny'
p6257
I1
sS'kaij'
p6258
I7
sS'kaih'
p6259
I8
sS'kaif'
p6260
I3
sS'ucjt'
p6261
I1
sS'inpi'
p6262
I1
sS'ngpa'
p6263
I2
sS'chuq'
p6264
I1
sS'ders'
p6265
I1
sS'nmey'
p6266
I5
sS'iuda'
p6267
I1
sS'uyfh'
p6268
I1
sS'ayud'
p6269
I1
sS'uoxi'
p6270
I1
sS'hato'
p6271
I1
sS'nmel'
p6272
I1
sS'ayul'
p6273
I10
sS'nmen'
p6274
I3
sS'ayun'
p6275
I2
sS'inpu'
p6276
I1
sS'nmei'
p6277
I2
sS'ilai'
p6278
I1
sS'enks'
p6279
I1
sS'cbwa'
p6280
I1
sS'liji'
p6281
I2
sS'lsdw'
p6282
I2
sS'qwjd'
p6283
I1
sS'atkt'
p6284
I18
sS'dazh'
p6285
I8
sS'zsof'
p6286
I1
sS'luro'
p6287
I10
sS'rpli'
p6288
I1
sS'jack'
p6289
I1
sS'ovbj'
p6290
I1
sS'omos'
p6291
I1
sS'ncco'
p6292
I10
sS'nyud'
p6293
I1
sS'yxco'
p6294
I1
sS'yvyf'
p6295
I1
sS'nyuj'
p6296
I1
sS'nyul'
p6297
I10
sS'nyun'
p6298
I3
sS'tang'
p6299
I2
sS'nwww'
p6300
I6
sS'jltu'
p6301
I3
sS'nyuy'
p6302
I1
sS'nyuz'
p6303
I4
sS'mpyl'
p6304
I1
sS'chew'
p6305
I5
sS'horb'
p6306
I1
sS'ifab'
p6307
I1
sS'sfin'
p6308
I6
sS'shuw'
p6309
I1
sS'ifan'
p6310
I4
sS'nowa'
p6311
I2
sS'nain'
p6312
I1
sS'uqjp'
p6313
I1
sS'chec'
p6314
I3
sS'sunc'
p6315
I2
sS'chen'
p6316
I106
sS'naie'
p6317
I1
sS'chem'
p6318
I2
sS'zish'
p6319
I1
sS'nzij'
p6320
I2
sS'hida'
p6321
I2
sS'amux'
p6322
I1
sS'iytp'
p6323
I1
sS'hide'
p6324
I2
sS'hidi'
p6325
I1
sS'fayo'
p6326
I1
sS'fayu'
p6327
I2
sS'nzif'
p6328
I2
sS'ohen'
p6329
I5
sS'irhg'
p6330
I1
sS'tppc'
p6331
I2
sS'fayx'
p6332
I2
sS'tanz'
p6333
I2
sS'etyu'
p6334
I2
sS'lljy'
p6335
I1
sS'undo'
p6336
I2
sS'anls'
p6337
I10
sS'royo'
p6338
I1
sS'leri'
p6339
I1
sS'ndui'
p6340
I1
sS'ngww'
p6341
I1
sS'niuu'
p6342
I1
sS'niuy'
p6343
I1
sS'ngwx'
p6344
I1
sS'ngwy'
p6345
I1
sS'niwc'
p6346
I1
sS'cder'
p6347
I1
sS'ngwe'
p6348
I1
sS'dizh'
p6349
I4
sS'uiji'
p6350
I4
sS'edxy'
p6351
I1
sS'cjgy'
p6352
I1
sS'ngwl'
p6353
I1
sS'ngwn'
p6354
I2
sS'ngwo'
p6355
I1
sS'engc'
p6356
I24
sS'jili'
p6357
I1
sS'fbaq'
p6358
I1
sS'tkho'
p6359
I1
sS'shzo'
p6360
I1
sS'fbab'
p6361
I1
sS'bfxu'
p6362
I1
sS'khhe'
p6363
I1
sS'ymin'
p6364
I1
sS'nduc'
p6365
I5
sS'lvsu'
p6366
I1
sS'gjih'
p6367
I1
sS'apai'
p6368
I1
sS'aosh'
p6369
I12
sS'yhgc'
p6370
I4
sS'nyyc'
p6371
I1
sS'yuha'
p6372
I2
sS'esyw'
p6373
I1
sS'rsdz'
p6374
I20
sS'zpla'
p6375
I1
sS'xida'
p6376
I4
sS'zplt'
p6377
I1
sS'enjk'
p6378
I1
sS'enjj'
p6379
I1
sS'enji'
p6380
I2
sS'kyjc'
p6381
I9
sS'dafe'
p6382
I1
sS'spya'
p6383
I2
sS'onin'
p6384
I2
sS'qrtm'
p6385
I4
sS'gjie'
p6386
I5
sS'dafu'
p6387
I3
sS'ukej'
p6388
I4
sS'uked'
p6389
I2
sS'icwt'
p6390
I2
sS'aaac'
p6391
I1
sS'fupo'
p6392
I18
sS'ukex'
p6393
I2
sS'ukew'
p6394
I2
sS'caix'
p6395
I3
sS'izli'
p6396
I1
sS'ipbi'
p6397
I2
sS'ruog'
p6398
I1
sS'vwjd'
p6399
I1
sS'nniu'
p6400
I1
sS'nikb'
p6401
I1
sS'adis'
p6402
I1
sS'caia'
p6403
I2
sS'iama'
p6404
I1
sS'pcok'
p6405
I1
sS'hfmy'
p6406
I1
sS'arco'
p6407
I4
sS'amin'
p6408
I3
sS'amid'
p6409
I10
sS'amia'
p6410
I2
sS'rjjs'
p6411
I1
sS'yhbx'
p6412
I1
sS'gtou'
p6413
I1
sS'pdog'
p6414
I2
sS'qpla'
p6415
I1
sS'rirh'
p6416
I1
sS'ompr'
p6417
I1
sS'netc'
p6418
I8
sS'eisi'
p6419
I4
sS'dkkq'
p6420
I1
sS'imup'
p6421
I1
sS'xjpb'
p6422
I1
sS'apce'
p6423
I1
sS'uqwn'
p6424
I1
sS'eche'
p6425
I86
sS'orum'
p6426
I1
sS'anll'
p6427
I1
sS'ucqs'
p6428
I1
sS'yunm'
p6429
I3
sS'iqia'
p6430
I13
sS'bant'
p6431
I3
sS'duqi'
p6432
I3
sS'banp'
p6433
I1
sS'bans'
p6434
I5
sS'iqih'
p6435
I2
sS'iqij'
p6436
I1
sS'bany'
p6437
I11
sS'banx'
p6438
I3
sS'xygv'
p6439
I1
sS'poqq'
p6440
I2
sS'bang'
p6441
I15
sS'banf'
p6442
I1
sS'banc'
p6443
I1
sS'banb'
p6444
I3
sS'qcst'
p6445
I1
sS'bann'
p6446
I4
sS'banh'
p6447
I2
sS'banj'
p6448
I1
sS'alex'
p6449
I2
sS'aley'
p6450
I2
sS'alez'
p6451
I1
sS'yund'
p6452
I3
sS'uewe'
p6453
I1
sS'ezuq'
p6454
I1
sS'alep'
p6455
I1
sS'rtyt'
p6456
I1
sS'dzol'
p6457
I1
sS'alel'
p6458
I2
sS'ekyj'
p6459
I1
sS'alej'
p6460
I3
sS'aled'
p6461
I3
sS'uewu'
p6462
I1
sS'hyhz'
p6463
I1
sS'wnuy'
p6464
I1
sS'logs'
p6465
I6
sS'ttpp'
p6466
I2
sS'ehsc'
p6467
I2
sS'pwan'
p6468
I1
sS'sler'
p6469
I1
sS'aqbb'
p6470
I1
sS'leql'
p6471
I1
sS'jiyu'
p6472
I12
sS'laiw'
p6473
I1
sS'ngvs'
p6474
I4
sS'laip'
p6475
I1
sS'vvaf'
p6476
I1
sS'zbfy'
p6477
I1
sS'tcop'
p6478
I1
sS'icke'
p6479
I1
sS'deqq'
p6480
I4
sS'xqpy'
p6481
I1
sS'tian'
p6482
I8
sS'tcom'
p6483
I10
sS'angd'
p6484
I9
sS'ange'
p6485
I10
sS'angf'
p6486
I14
sS'angg'
p6487
I16
sS'anga'
p6488
I1
sS'angb'
p6489
I11
sS'angc'
p6490
I32
sS'angl'
p6491
I46
sS'angm'
p6492
I5
sS'angn'
p6493
I7
sS'ango'
p6494
I15
sS'angh'
p6495
I7
sS'ayou'
p6496
I1
sS'angj'
p6497
I55
sS'angk'
p6498
I5
sS'angt'
p6499
I5
sS'angu'
p6500
I2
sS'angv'
p6501
I4
sS'angw'
p6502
I6
sS'angp'
p6503
I5
sS'angq'
p6504
I12
sS'angr'
p6505
I2
sS'heco'
p6506
I20
sS'heca'
p6507
I17
sS'daye'
p6508
I2
sS'hzvh'
p6509
I1
sS'angy'
p6510
I25
sS'angz'
p6511
I23
sS'daya'
p6512
I1
sS'haoj'
p6513
I4
sS'haol'
p6514
I1
sS'haom'
p6515
I2
sS'xikt'
p6516
I1
sS'xikv'
p6517
I1
sS'haod'
p6518
I2
sS'eniw'
p6519
I1
sS'haof'
p6520
I1
sS'haox'
p6521
I2
sS'mupe'
p6522
I1
sS'haoq'
p6523
I4
sS'haos'
p6524
I3
sS'xika'
p6525
I3
sS'xikc'
p6526
I1
sS'ozai'
p6527
I1
sS'whgc'
p6528
I3
sS'doge'
p6529
I2
sS'ogcg'
p6530
I1
sS'tune'
p6531
I2
sS'ozap'
p6532
I2
sS'mtmm'
p6533
I1
sS'ityy'
p6534
I4
sS'toob'
p6535
I1
sS'eqlo'
p6536
I1
sS'tool'
p6537
I10
sS'ojig'
p6538
I1
sS'ityh'
p6539
I2
sS'toor'
p6540
I3
sS'nboe'
p6541
I1
sS'iyuy'
p6542
I2
sS'iyux'
p6543
I1
sS'iyuz'
p6544
I1
sS'iyul'
p6545
I22
sS'nofm'
p6546
I1
sS'iyun'
p6547
I26
sS'iyuh'
p6548
I2
sS'iyuk'
p6549
I2
sS'iyua'
p6550
I3
sS'ebai'
p6551
I2
sS'hhey'
p6552
I1
sS'aish'
p6553
I6
sS'eilv'
p6554
I4
sS'adha'
p6555
I4
sS'iblo'
p6556
I3
sS'huox'
p6557
I1
sS'huoz'
p6558
I1
sS'maxi'
p6559
I1
sS'huod'
p6560
I1
sS'eeli'
p6561
I1
sS'eelo'
p6562
I1
sS'sznn'
p6563
I8
sS'usic'
p6564
I4
sS'fbbq'
p6565
I3
sS'glon'
p6566
I36
sS'khow'
p6567
I1
sS'uxnm'
p6568
I1
sS'yqqm'
p6569
I2
sS'fbbh'
p6570
I7
sS'glou'
p6571
I1
sS'nanl'
p6572
I10
sS'seky'
p6573
I1
sS'yanp'
p6574
I1
sS'yanx'
p6575
I5
sS'qmrs'
p6576
I1
sS'yane'
p6577
I1
sS'yang'
p6578
I50
sS'yanc'
p6579
I10
sS'bais'
p6580
I1
sS'bait'
p6581
I1
sS'baiy'
p6582
I1
sS'iqff'
p6583
I1
sS'iezh'
p6584
I3
sS'ftpl'
p6585
I1
sS'iezu'
p6586
I1
sS'xyfh'
p6587
I1
sS'baid'
p6588
I3
sS'daor'
p6589
I1
sS'baij'
p6590
I20
sS'bail'
p6591
I1
sS'qyzi'
p6592
I1
sS'odai'
p6593
I1
sS'odan'
p6594
I1
sS'odao'
p6595
I2
sS'odaz'
p6596
I1
sS'nanz'
p6597
I2
sS'pltp'
p6598
I1
sS'odau'
p6599
I1
sS'kphu'
p6600
I1
sS'ajrr'
p6601
I1
sS'gogo'
p6602
I1
sS'jiej'
p6603
I1
sS'chny'
p6604
I1
sS'ipei'
p6605
I1
sS'anzu'
p6606
I3
sS'woma'
p6607
I10
sS'anzc'
p6608
I1
sS'poji'
p6609
I1
sS'anze'
p6610
I1
sS'zdmj'
p6611
I1
sS'anzi'
p6612
I5
sS'anzh'
p6613
I6
sS'anzo'
p6614
I3
sS'innv'
p6615
I2
sS'zuag'
p6616
I1
sS'txco'
p6617
I10
sS'btzb'
p6618
I1
sS'cnqf'
p6619
I1
sS'uozh'
p6620
I3
sS'inna'
p6621
I1
sS'vewu'
p6622
I2
sS'inno'
p6623
I1
sS'iuzo'
p6624
I1
sS'inni'
p6625
I1
sS'ishu'
p6626
I2
sS'anfe'
p6627
I2
sS'gdin'
p6628
I2
sS'anfa'
p6629
I6
sS'lihn'
p6630
I1
sS'liha'
p6631
I2
sS'daxu'
p6632
I1
sS'prgh'
p6633
I1
sS'gdiz'
p6634
I1
sS'ishe'
p6635
I2
sS'tnda'
p6636
I2
sS'isha'
p6637
I3
sS'hebm'
p6638
I1
sS'krhc'
p6639
I10
sS'isho'
p6640
I5
sS'eren'
p6641
I1
sS'ishi'
p6642
I8
sS'lczh'
p6643
I10
sS'lczm'
p6644
I1
sS'axun'
p6645
I1
sS'bost'
p6646
I1
sS'gmin'
p6647
I2
sS'gque'
p6648
I1
sS'axue'
p6649
I1
sS'gqua'
p6650
I1
sS'yrwa'
p6651
I1
sS'newx'
p6652
I4
sS'dkjj'
p6653
I1
sS'bosh'
p6654
I1
sS'cppm'
p6655
I1
sS'news'
p6656
I1
sS'xylc'
p6657
I10
sS'rccn'
p6658
I1
sS'ncak'
p6659
I1
sS'ncai'
p6660
I2
sS'ncao'
p6661
I1
sS'zfsc'
p6662
I10
sS'yiji'
p6663
I2
sS'ortu'
p6664
I2
sS'umdy'
p6665
I1
sS'tzen'
p6666
I1
sS'ortm'
p6667
I2
sS'brak'
p6668
I1
sS'hvvz'
p6669
I1
sS'qqzn'
p6670
I1
sS'guiz'
p6671
I2
sS'guiy'
p6672
I1
sS'guiw'
p6673
I1
sS'gssc'
p6674
I10
sS'chkc'
p6675
I1
sS'grcc'
p6676
I1
sS'hiji'
p6677
I8
sS'hijc'
p6678
I4
sS'sywl'
p6679
I1
sS'mjia'
p6680
I1
sS'olur'
p6681
I3
sS'qqfy'
p6682
I1
sS'jcom'
p6683
I4
sS'xsyl'
p6684
I7
sS'tlzk'
p6685
I1
sS'lepo'
p6686
I1
sS'lepi'
p6687
I2
sS'gwww'
p6688
I1
sS'ohex'
p6689
I1
sS'nguv'
p6690
I2
sS'gyan'
p6691
I12
sS'zsdw'
p6692
I1
sS'zlig'
p6693
I1
sS'uihu'
p6694
I1
sS'zliy'
p6695
I1
sS'gyaz'
p6696
I3
sS'ngua'
p6697
I3
sS'nguf'
p6698
I1
sS'edzb'
p6699
I1
sS'wjdc'
p6700
I4
sS'nguo'
p6701
I4
sS'ngum'
p6702
I1
sS'ryin'
p6703
I2
sS'fbco'
p6704
I1
sS'conc'
p6705
I2
sS'ewsc'
p6706
I1
sS'iego'
p6707
I11
sS'enhe'
p6708
I2
sS'yuny'
p6709
I2
sS'yunz'
p6710
I2
sS'yaos'
p6711
I2
sS'enhc'
p6712
I1
sS'miyt'
p6713
I1
sS'pliy'
p6714
I1
sS'enhn'
p6715
I1
sS'yunw'
p6716
I1
sS'yunh'
p6717
I1
sS'yunj'
p6718
I6
sS'yunl'
p6719
I1
sS'jwom'
p6720
I1
sS'yunn'
p6721
I4
sS'yunc'
p6722
I5
sS'qmsc'
p6723
I1
sS'yunf'
p6724
I4
sS'yung'
p6725
I3
sS'evic'
p6726
I1
sS'fuss'
p6727
I10
sS'hanl'
p6728
I2
sS'hanb'
p6729
I14
sS'wcha'
p6730
I1
sS'hang'
p6731
I53
sS'istb'
p6732
I2
sS'hand'
p6733
I3
sS'hanz'
p6734
I8
sS'hany'
p6735
I2
sS'hans'
p6736
I1
sS'hanq'
p6737
I1
sS'fush'
p6738
I8
sS'yyon'
p6739
I4
sS'nboc'
p6740
I3
sS'dadi'
p6741
I2
sS'dade'
p6742
I1
sS'udou'
p6743
I2
sS'dadc'
p6744
I7
sS'zcom'
p6745
I11
sS'nbos'
p6746
I1
sS'cuxu'
p6747
I1
sS'aist'
p6748
I1
sS'nboy'
p6749
I2
sS'govx'
p6750
I5
sS'jieg'
p6751
I4
sS'kzap'
p6752
I1
sS'ztfy'
p6753
I1
sS'nuvc'
p6754
I1
sS'fmfy'
p6755
I10
sS'rpgu'
p6756
I1
sS'jiev'
p6757
I1
sS'jier'
p6758
I1
sS'huij'
p6759
I3
sS'jiey'
p6760
I5
sS'jiez'
p6761
I2
sS'eyqx'
p6762
I1
sS'qxmi'
p6763
I1
sS'anyu'
p6764
I11
sS'jyyl'
p6765
I1
sS'gdet'
p6766
I1
sS'yeco'
p6767
I2
sS'anyo'
p6768
I2
sS'ruan'
p6769
I3
sS'igao'
p6770
I3
sS'anyi'
p6771
I15
sS'nrbc'
p6772
I1
sS'enan'
p6773
I14
sS'xtpf'
p6774
I1
sS'xnoo'
p6775
I1
sS'dser'
p6776
I1
sS'pzxs'
p6777
I10
sS'ljyu'
p6778
I9
sS'hlvs'
p6779
I1
sS'oubt'
p6780
I1
sS'oubi'
p6781
I1
sS'oubo'
p6782
I3
sS'kaod'
p6783
I1
sS'ouba'
p6784
I8
sS'vfus'
p6785
I1
sS'vqbj'
p6786
I1
sS'oxif'
p6787
I2
sS'zvhf'
p6788
I1
sS'oxia'
p6789
I4
sS'oxin'
p6790
I2
sS'gjcr'
p6791
I2
sS'lceb'
p6792
I1
sS'uqun'
p6793
I2
sS'uqua'
p6794
I2
sS'yikc'
p6795
I7
sS'yxdq'
p6796
I1
sS'yvfy'
p6797
I1
sS'oijy'
p6798
I1
sS'cedu'
p6799
I1
sS'umen'
p6800
I1
sS'umei'
p6801
I1
sS'bqtb'
p6802
I1
sS'sdpz'
p6803
I1
sS'afya'
p6804
I1
sS'ilem'
p6805
I1
sS'ilei'
p6806
I10
sS'hgcn'
p6807
I4
sS'duwa'
p6808
I1
sS'gctp'
p6809
I1
sS'mcom'
p6810
I12
sS'swco'
p6811
I20
sS'lmcn'
p6812
I1
sS'lmco'
p6813
I1
sS'nqff'
p6814
I2
sS'lhom'
p6815
I1
sS'sxco'
p6816
I10
sS'opin'
p6817
I1
sS'nqfu'
p6818
I1
sS'egss'
p6819
I10
sS'oube'
p6820
I1
sS'swjd'
p6821
I1
sS'duke'
p6822
I4
sS'otel'
p6823
I1
sS'kqia'
p6824
I1
sS'ghai'
p6825
I3
sS'duku'
p6826
I2
sS'usst'
p6827
I10
sS'lewa'
p6828
I1
sS'kqip'
p6829
I1
sS'dewa'
p6830
I1
sS'wjgy'
p6831
I2
sS'uyee'
p6832
I10
sS'ngtu'
p6833
I3
sS'ngtw'
p6834
I1
sS'ngtv'
p6835
I1
sS'opum'
p6836
I1
sS'vafy'
p6837
I1
sS'ngto'
p6838
I1
sS'ngti'
p6839
I1
sS'anru'
p6840
I1
sS'rell'
p6841
I1
sS'ngta'
p6842
I11
sS'inma'
p6843
I2
sS'qsun'
p6844
I1
sS'inme'
p6845
I1
sS'inmi'
p6846
I1
sS'qffq'
p6847
I6
sS'isiw'
p6848
I4
sS'liww'
p6849
I1
sS'aned'
p6850
I10
sS'erdu'
p6851
I1
sS'anek'
p6852
I1
sS'aneo'
p6853
I1
sS'hztb'
p6854
I1
sS'bidl'
p6855
I1
sS'isib'
p6856
I1
sS'anet'
p6857
I2
sS'isin'
p6858
I1
sS'erda'
p6859
I1
sS'liwi'
p6860
I1
sS'gkat'
p6861
I18
sS'gkav'
p6862
I1
sS'gkap'
p6863
I1
sS'oboc'
p6864
I3
sS'eiqu'
p6865
I1
sS'gkaf'
p6866
I13
sS'jixi'
p6867
I4
sS'gkai'
p6868
I5
sS'gkah'
p6869
I1
sS'xiid'
p6870
I1
sS'hami'
p6871
I10
sS'uxip'
p6872
I1
sS'dfov'
p6873
I1
sS'uxis'
p6874
I1
sS'aiph'
p6875
I2
sS'aipi'
p6876
I12
sS'oyou'
p6877
I4
sS'yylc'
p6878
I1
sS'uxiz'
p6879
I2
sS'aipe'
p6880
I1
sS'aipa'
p6881
I2
sS'uxia'
p6882
I12
sS'uxid'
p6883
I1
sS'uxie'
p6884
I4
sS'uxig'
p6885
I1
sS'uxih'
p6886
I2
sS'uxii'
p6887
I1
sS'uxik'
p6888
I5
sS'uxil'
p6889
I3
sS'uxin'
p6890
I2
sS'dkqc'
p6891
I1
sS'uqia'
p6892
I2
sS'bqtu'
p6893
I1
sS'guji'
p6894
I1
sS'uqiy'
p6895
I2
sS'uqiu'
p6896
I13
sS'mwli'
p6897
I1
sS'uqip'
p6898
I1
sS'ksst'
p6899
I1
sS'etze'
p6900
I1
sS'byqi'
p6901
I6
sS'yxxb'
p6902
I1
sS'pwco'
p6903
I3
sS'bedh'
p6904
I2
sS'faza'
p6905
I1
sS'wwan'
p6906
I4
sS'bedq'
p6907
I1
sS'eboh'
p6908
I1
sS'ebok'
p6909
I1
sS'bedz'
p6910
I1
sS'xeal'
p6911
I1
sS'ebog'
p6912
I1
sS'eboc'
p6913
I2
sS'dsdf'
p6914
I1
sS'ouco'
p6915
I10
sS'qlov'
p6916
I1
sS'oucu'
p6917
I5
sS'xxbc'
p6918
I1
sS'yjjh'
p6919
I1
sS'czxh'
p6920
I3
sS'dhyv'
p6921
I1
sS'qixi'
p6922
I4
sS'ceya'
p6923
I1
sS'dbcj'
p6924
I1
sS'vxin'
p6925
I1
sS'ryhk'
p6926
I1
sS'glmt'
p6927
I1
sS'yudu'
p6928
I4
sS'ivie'
p6929
I5
sS'nzou'
p6930
I3
sS'ddqk'
p6931
I1
sS'glmc'
p6932
I1
sS'tuan'
p6933
I1
sS'enoa'
p6934
I1
sS'esdw'
p6935
I1
sS'pljy'
p6936
I1
sS'yuow'
p6937
I1
sS'edai'
p6938
I2
sS'lyjj'
p6939
I1
sS'ccom'
p6940
I27
sS'aiwj'
p6941
I2
sS'ptgf'
p6942
I1
sS'ewhk'
p6943
I5
sS'sayf'
p6944
I6
sS'duvi'
p6945
I1
sS'bwan'
p6946
I1
sS'port'
p6947
I2
sS'nqin'
p6948
I1
sS'uert'
p6949
I2
sS'lmbj'
p6950
I2
sS'mxuz'
p6951
I1
sS'nqia'
p6952
I2
sS'nqib'
p6953
I3
sS'hscs'
p6954
I1
sS'nqiy'
p6955
I1
sS'ueri'
p6956
I1
sS'bsyl'
p6957
I1
sS'nqip'
p6958
I5
sS'ltpf'
p6959
I1
sS'unso'
p6960
I3
sS'aozh'
p6961
I3
sS'jida'
p6962
I1
sS'hopz'
p6963
I10
sS'houc'
p6964
I5
sS'jidi'
p6965
I1
sS'jidu'
p6966
I1
sS'vsgm'
p6967
I1
sS'svip'
p6968
I2
sS'qkfs'
p6969
I1
sS'uxua'
p6970
I1
sS'anwe'
p6971
I2
sS'anxu'
p6972
I8
sS'anxi'
p6973
I12
sS'uxur'
p6974
I1
sS'cgch'
p6975
I1
sS'uxuz'
p6976
I2
sS'mehn'
p6977
I1
sS'xgbj'
p6978
I2
sS'icns'
p6979
I1
sS'nmas'
p6980
I1
sS'unvi'
p6981
I1
sS'nmaj'
p6982
I1
sS'pixi'
p6983
I2
sS'nmam'
p6984
I3
sS'nmao'
p6985
I1
sS'cnsn'
p6986
I1
sS'iuxi'
p6987
I2
sS'inla'
p6988
I2
sS'bcyx'
p6989
I1
sS'gsun'
p6990
I8
sS'andi'
p6991
I4
sS'ande'
p6992
I3
sS'anda'
p6993
I9
sS'xueb'
p6994
I1
sS'live'
p6995
I2
sS'ercn'
p6996
I11
sS'andu'
p6997
I7
sS'tquf'
p6998
I1
sS'gdon'
p6999
I1
sS'luvi'
p7000
I2
sS'boqu'
p7001
I1
sS'boqi'
p7002
I1
sS'gjbm'
p7003
I1
sS'omsh'
p7004
I1
sS'gqwc'
p7005
I2
sS'gguo'
p7006
I9
sS'ggui'
p7007
I1
sS'mdtv'
p7008
I1
sS'nyis'
p7009
I1
sS'ggua'
p7010
I14
sS'nyiy'
p7011
I2
sS'unvx'
p7012
I1
sS'umbl'
p7013
I1
sS'fdqe'
p7014
I10
sS'nyin'
p7015
I18
sS'yihu'
p7016
I1
sS'btsf'
p7017
I6
sS'nocn'
p7018
I2
sS'fwsc'
p7019
I1
sS'znik'
p7020
I1
sS'chim'
p7021
I1
sS'paxu'
p7022
I1
sS'shgy'
p7023
I1
sS'zfux'
p7024
I1
sS'xkzb'
p7025
I1
sS'levs'
p7026
I2
sS'bawi'
p7027
I1
sS'eico'
p7028
I4
sS'dedv'
p7029
I2
sS'obvi'
p7030
I1
sS'jdcb'
p7031
I4
sS'qtbb'
p7032
I1
sS'nggu'
p7033
I24
sS'ngsu'
p7034
I8
sS'ngsh'
p7035
I39
sS'smsa'
p7036
I5
sS'vuvh'
p7037
I1
sS'ngse'
p7038
I3
sS'tqzs'
p7039
I1
sS'uzzy'
p7040
I2
sS'yule'
p7041
I101
sS'ewuw'
p7042
I2
sS'fber'
p7043
I1
sS'tktd'
p7044
I20
sS'dmji'
p7045
I1
sS'ewun'
p7046
I1
sS'wmpc'
p7047
I10
sS'enna'
p7048
I1
sS'ehvv'
p7049
I2
sS'yfas'
p7050
I6
sS'ugao'
p7051
I1
sS'lelu'
p7052
I2
sS'xihn'
p7053
I2
sS'enno'
p7054
I1
sS'pqxc'
p7055
I4
sS'jmsd'
p7056
I1
sS'qbyz'
p7057
I1
sS'aymi'
p7058
I1
sS'gkfc'
p7059
I1
sS'aeia'
p7060
I2
sS'raku'
p7061
I1
sS'halo'
p7062
I1
sS'aiqi'
p7063
I12
sS'nban'
p7064
I18
sS'ozbs'
p7065
I1
sS'terl'
p7066
I1
sS'name'
p7067
I1
sS'nbai'
p7068
I2
sS'lies'
p7069
I2
sS'pyxd'
p7070
I1
sS'kert'
p7071
I1
sS'nbab'
p7072
I2
sS'aiqx'
p7073
I1
sS'namu'
p7074
I1
sS'sjlm'
p7075
I1
sS'dauf'
p7076
I1
sS'tert'
p7077
I1
sS'nbas'
p7078
I1
sS'jter'
p7079
I1
sS'jigo'
p7080
I3
sS'igco'
p7081
I1
sS'uhua'
p7082
I2
sS'jigu'
p7083
I1
sS'ukai'
p7084
I1
sS'djpy'
p7085
I20
sS'uhui'
p7086
I2
sS'uduk'
p7087
I6
sS'udul'
p7088
I2
sS'fyan'
p7089
I10
sS'nnet'
p7090
I12
sS'ywzc'
p7091
I10
sS'ycst'
p7092
I1
sS'fyas'
p7093
I10
sS'aibo'
p7094
I1
sS'unch'
p7095
I5
sS'unci'
p7096
I2
sS'ouda'
p7097
I4
sS'xnmz'
p7098
I1
sS'oudi'
p7099
I3
sS'oudo'
p7100
I1
sS'dhzv'
p7101
I1
sS'hult'
p7102
I1
sS'ibai'
p7103
I1
sS'iban'
p7104
I15
sS'oudu'
p7105
I2
sS'card'
p7106
I1
sS'qiye'
p7107
I1
sS'zomh'
p7108
I1
sS'qiyu'
p7109
I2
sS'szco'
p7110
I1
sS'ihae'
p7111
I2
sS'okai'
p7112
I7
sS'izuq'
p7113
I1
sS'cfbe'
p7114
I1
sS'omtw'
p7115
I4
sS'zqcn'
p7116
I1
sS'sizh'
p7117
I1
sS'rinn'
p7118
I1
sS'lcgf'
p7119
I1
sS'sizl'
p7120
I1
sS'jpyf'
p7121
I1
sS'dlfk'
p7122
I5
sS'jpyc'
p7123
I20
sS'yxfy'
p7124
I1
sS'utuy'
p7125
I1
sS'rwan'
p7126
I1
sS'fdvi'
p7127
I2
sS'fobi'
p7128
I1
sS'fpwc'
p7129
I3
sS'umcn'
p7130
I2
sS'wpwe'
p7131
I1
sS'sstd'
p7132
I10
sS'copc'
p7133
I1
sS'ieyi'
p7134
I2
sS'ftwa'
p7135
I2
sS'iosd'
p7136
I1
sS'quan'
p7137
I10
sS'gczx'
p7138
I1
sS'upei'
p7139
I1
sS'zxtp'
p7140
I1
sS'ieyu'
p7141
I5
sS'azpl'
p7142
I1
sS'tvps'
p7143
I1
sS'wsmi'
p7144
I1
sS'egua'
p7145
I1
sS'lyud'
p7146
I1
sS'plwa'
p7147
I1
sS'hsbc'
p7148
I1
sS'dqec'
p7149
I10
sS'gobv'
p7150
I1
sS'ultj'
p7151
I1
sS'bsxi'
p7152
I2
sS'bsxk'
p7153
I3
sS'seri'
p7154
I1
sS'ghom'
p7155
I3
sS'renb'
p7156
I1
sS'rend'
p7157
I1
sS'duih'
p7158
I1
sS'renj'
p7159
I1
sS'renm'
p7160
I11
sS'ghoc'
p7161
I1
sS'renr'
p7162
I2
sS'jclm'
p7163
I1
sS'bedt'
p7164
I2
sS'vuqy'
p7165
I1
sS'ngrr'
p7166
I2
sS'ngru'
p7167
I2
sS'zbbf'
p7168
I1
sS'kusz'
p7169
I1
sS'mfus'
p7170
I1
sS'ngrc'
p7171
I1
sS'ngrb'
p7172
I2
sS'ngre'
p7173
I13
sS'gylc'
p7174
I1
sS'bife'
p7175
I1
sS'uusd'
p7176
I1
sS'iuyu'
p7177
I3
sS'inki'
p7178
I1
sS'iuyo'
p7179
I1
sS'iuye'
p7180
I10
sS'inka'
p7181
I1
sS'iuyf'
p7182
I1
sS'icom'
p7183
I15
sS'anch'
p7184
I13
sS'ecai'
p7185
I17
sS'lscs'
p7186
I1
sS'ancn'
p7187
I3
sS'anco'
p7188
I10
sS'xjia'
p7189
I1
sS'anca'
p7190
I2
sS'jieb'
p7191
I1
sS'iskv'
p7192
I1
sS'ance'
p7193
I2
sS'lnai'
p7194
I1
sS'liuc'
p7195
I2
sS'erbi'
p7196
I2
sS'tncn'
p7197
I10
sS'cbzm'
p7198
I1
sS'lsco'
p7199
I10
sS'liuh'
p7200
I17
sS'cqsu'
p7201
I1
sS'tiyu'
p7202
I2
sS'gvpj'
p7203
I1
sS'bico'
p7204
I4
sS'gkgc'
p7205
I2
sS'jizh'
p7206
I2
sS'ayjp'
p7207
I1
sS'tiyo'
p7208
I1
sS'mlhe'
p7209
I1
sS'wcom'
p7210
I23
sS'nvip'
p7211
I5
sS'ituj'
p7212
I2
sS'nali'
p7213
I13
sS'itug'
p7214
I1
sS'itua'
p7215
I1
sS'nkza'
p7216
I1
sS'kesh'
p7217
I1
sS'oyin'
p7218
I5
sS'ituz'
p7219
I1
sS'gnal'
p7220
I2
sS'uxkd'
p7221
I2
sS'ihua'
p7222
I4
sS'ihub'
p7223
I2
sS'etou'
p7224
I4
sS'ihud'
p7225
I2
sS'xvbk'
p7226
I1
sS'ehny'
p7227
I2
sS'ihup'
p7228
I1
sS'ihur'
p7229
I1
sS'anea'
p7230
I1
sS'xvbx'
p7231
I1
sS'mhex'
p7232
I2
sS'tayu'
p7233
I2
sS'layc'
p7234
I10
sS'oqiq'
p7235
I1
sS'oqip'
p7236
I1
sS'sojz'
p7237
I3
sS'ebmj'
p7238
I1
sS'lxnx'
p7239
I1
sS'aron'
p7240
I2
sS'xszs'
p7241
I1
sS'fdkk'
p7242
I1
sS'oqin'
p7243
I2
sS'szbo'
p7244
I1
sS'ujzd'
p7245
I1
sS'ouer'
p7246
I1
sS'dpzm'
p7247
I1
sS'amby'
p7248
I1
sS'oqua'
p7249
I1
sS'wapw'
p7250
I2
sS'hish'
p7251
I4
sS'wkco'
p7252
I2
sS'agxa'
p7253
I1
sS'zols'
p7254
I1
sS'dmiy'
p7255
I1
sS'comp'
p7256
I1
sS'coms'
p7257
I1
sS'comt'
p7258
I4
sS'vxkd'
p7259
I3
sS'ixua'
p7260
I1
sS'cycn'
p7261
I2
sS'akph'
p7262
I1
sS'ivwa'
p7263
I1
sS'comc'
p7264
I28
sS'ixun'
p7265
I1
sS'bbxy'
p7266
I3
sS'efuc'
p7267
I1
sS'mona'
p7268
I1
sS'enme'
p7269
I8
sS'xion'
p7270
I1
sS'aoxi'
p7271
I6
sS'yhzf'
p7272
I1
sS'ttqu'
p7273
I1
sS'ixie'
p7274
I2
sS'vdse'
p7275
I1
sS'ixia'
p7276
I11
sS'eadh'
p7277
I1
sS'ixin'
p7278
I13
sS'fuwu'
p7279
I3
sS'ewjo'
p7280
I5
sS'epcn'
p7281
I3
sS'qufm'
p7282
I1
sS'yqih'
p7283
I6
sS'nzuq'
p7284
I5
sS'poli'
p7285
I1
sS'wieg'
p7286
I1
sS'pbfu'
p7287
I10
sS'aoda'
p7288
I4
sS'geig'
p7289
I2
sS'dqdq'
p7290
I1
sS'gocn'
p7291
I3
sS'odeq'
p7292
I4
sS'oden'
p7293
I2
sS'shib'
p7294
I6
sS'odel'
p7295
I2
sS'cxkz'
p7296
I1
sS'wcsf'
p7297
I1
sS'aerb'
p7298
I2
sS'djqj'
p7299
I1
sS'eloz'
p7300
I1
sS'jifa'
p7301
I1
sS'gbei'
p7302
I2
sS'aert'
p7303
I1
sS'shid'
p7304
I3
sS'eytp'
p7305
I1
sS'kzbj'
p7306
I1
sS'aery'
p7307
I2
sS'oshu'
p7308
I2
sS'zeny'
p7309
I1
sS'tyyo'
p7310
I4
sS'zmys'
p7311
I1
sS'nnfk'
p7312
I6
sS'ipin'
p7313
I19
sS'vfya'
p7314
I1
sS'ipia'
p7315
I5
sS'heno'
p7316
I1
sS'zhup'
p7317
I1
sS'henm'
p7318
I2
sS'henk'
p7319
I4
sS'henj'
p7320
I3
sS'heni'
p7321
I1
sS'henh'
p7322
I1
sS'heng'
p7323
I142
sS'sush'
p7324
I2
sS'hnzf'
p7325
I10
sS'hend'
p7326
I3
sS'henc'
p7327
I25
sS'henb'
p7328
I2
sS'inju'
p7329
I2
sS'zhua'
p7330
I2
sS'inji'
p7331
I2
sS'heny'
p7332
I7
sS'henx'
p7333
I1
sS'zhui'
p7334
I2
sS'vyxf'
p7335
I1
sS'henu'
p7336
I2
sS'hent'
p7337
I3
sS'henr'
p7338
I2
sS'henq'
p7339
I3
sS'bowa'
p7340
I1
sS'anbi'
p7341
I2
sS'anbo'
p7342
I2
sS'bowe'
p7343
I1
sS'wmhe'
p7344
I1
sS'litt'
p7345
I1
sS'anba'
p7346
I18
sS'anbe'
p7347
I1
sS'buyu'
p7348
I2
sS'ojcr'
p7349
I2
sS'litk'
p7350
I1
sS'anbu'
p7351
I3
sS'wheb'
p7352
I1
sS'rxuz'
p7353
I1
sS'gbuy'
p7354
I1
sS'icpc'
p7355
I4
sS'eiti'
p7356
I2
sS'nfuw'
p7357
I1
sS'kdgy'
p7358
I10
sS'utts'
p7359
I1
sS'uxiw'
p7360
I1
sS'ppyb'
p7361
I1
sS'ncep'
p7362
I2
sS'ncen'
p7363
I2
sS'uxix'
p7364
I1
sS'fptg'
p7365
I1
sS'uxiy'
p7366
I4
sS'oieg'
p7367
I3
sS'nced'
p7368
I1
sS'dxya'
p7369
I1
sS'hica'
p7370
I1
sS'gjxc'
p7371
I1
sS'noac'
p7372
I1
sS'mwom'
p7373
I2
sS'gzhe'
p7374
I4
sS'ncyc'
p7375
I1
sS'pwli'
p7376
I1
sS'wwlm'
p7377
I1
sS'leti'
p7378
I1
sS'leto'
p7379
I4
sS'blog'
p7380
I6
sS'dgzd'
p7381
I1
sS'mpcn'
p7382
I10
sS'dfob'
p7383
I1
sS'ngqf'
p7384
I3
sS'jhyt'
p7385
I1
sS'ngqe'
p7386
I2
sS'hgxc'
p7387
I6
sS'baqb'
p7388
I1
sS'ngqi'
p7389
I20
sS'ngqw'
p7390
I2
sS'ngqu'
p7391
I2
sS'ngqs'
p7392
I1
sS'ghny'
p7393
I4
sS'dcbp'
p7394
I4
sS'zayb'
p7395
I1
sS'uilu'
p7396
I1
sS'deta'
p7397
I1
sS'uyhg'
p7398
I4
sS'bydl'
p7399
I1
sS'nlay'
p7400
I2
sS'yubi'
p7401
I1
sS'oblo'
p7402
I1
sS'csfu'
p7403
I1
sS'qmwo'
p7404
I1
sS'gpix'
p7405
I2
sS'nlan'
p7406
I4
sS'gpin'
p7407
I7
sS'yubu'
p7408
I1
sS'xinb'
p7409
I1
sS'xina'
p7410
I1
sS'xing'
p7411
I44
sS'nios'
p7412
I1
sS'aoyu'
p7413
I5
sS'xind'
p7414
I14
sS'xink'
p7415
I1
sS'xinj'
p7416
I1
sS'xinm'
p7417
I3
sS'xinl'
p7418
I2
sS'xins'
p7419
I2
sS'aoya'
p7420
I4
sS'xinp'
p7421
I2
sS'xinw'
p7422
I3
sS'xint'
p7423
I1
sS'xiny'
p7424
I8
sS'xinx'
p7425
I2
sS'aoyo'
p7426
I2
sS'gxin'
p7427
I17
sS'gxio'
p7428
I1
sS'tjin'
p7429
I1
sS'idux'
p7430
I3
sS'gxif'
p7431
I8
sS'gxid'
p7432
I1
sS'gxie'
p7433
I2
sS'hwxu'
p7434
I1
sS'gxia'
p7435
I7
sS'habo'
p7436
I1
sS'iduo'
p7437
I10
sS'ngbe'
p7438
I2
sS'qbbx'
p7439
I1
sS'idub'
p7440
I1
sS'gumc'
p7441
I1
sS'ittl'
p7442
I1
sS'iegu'
p7443
I4
sS'naob'
p7444
I1
sS'chon'
p7445
I2
sS'gumy'
p7446
I1
sS'tepi'
p7447
I1
sS'izni'
p7448
I1
sS'jiah'
p7449
I2
sS'dvip'
p7450
I5
sS'cgfb'
p7451
I1
sS'jiak'
p7452
I4
sS'gbdc'
p7453
I1
sS'youj'
p7454
I2
sS'jian'
p7455
I40
sS'jiao'
p7456
I6
sS'youf'
p7457
I2
sS'youd'
p7458
I3
sS'eyul'
p7459
I7
sS'jiag'
p7460
I4
sS'jiay'
p7461
I1
sS'dvic'
p7462
I2
sS'uhwa'
p7463
I1
sS'youz'
p7464
I1
sS'uryh'
p7465
I1
sS'youx'
p7466
I22
sS'jiap'
p7467
I1
sS'jiar'
p7468
I2
sS'yout'
p7469
I2
sS'yous'
p7470
I3
sS'jiau'
p7471
I20
sS'youq'
p7472
I2
sS'jiaw'
p7473
I3
sS'keho'
p7474
I2
sS'tsfi'
p7475
I6
sS'arei'
p7476
I2
sS'ipho'
p7477
I4
sS'budi'
p7478
I2
sS'ngbt'
p7479
I3
sS'oufh'
p7480
I1
sS'dbfh'
p7481
I1
sS'huji'
p7482
I1
sS'oufe'
p7483
I1
sS'iqig'
p7484
I3
sS'oufa'
p7485
I2
sS'zjmh'
p7486
I1
sS'oeba'
p7487
I1
sS'hiri'
p7488
I1
sS'hirt'
p7489
I2
sS'vtpf'
p7490
I1
sS'qiww'
p7491
I1
sS'gjzd'
p7492
I2
sS'eiur'
p7493
I2
sS'umai'
p7494
I2
sS'nert'
p7495
I1
sS'umas'
p7496
I1
sS'nero'
p7497
I2
sS'eiuf'
p7498
I4
sS'axxb'
p7499
I1
sS'rdby'
p7500
I1
sS'nhen'
p7501
I2
sS'nhei'
p7502
I1
sS'nhef'
p7503
I1
sS'ggpc'
p7504
I1
sS'alcn'
p7505
I1
sS'gcxk'
p7506
I1
sS'afuh'
p7507
I2
sS'ilao'
p7508
I2
sS'iwmh'
p7509
I1
sS'afug'
p7510
I1
sS'pooc'
p7511
I1
sS'unyu'
p7512
I2
sS'zxzp'
p7513
I1
sS'dgyw'
p7514
I10
sS'xzwc'
p7515
I10
sS'ewan'
p7516
I4
sS'gejz'
p7517
I1
sS'xbbx'
p7518
I1
sS'hjpb'
p7519
I1
sS'ztbx'
p7520
I1
sS'nxpb'
p7521
I1
sS'hsdw'
p7522
I1
sS'uimi'
p7523
I1
sS'bapi'
p7524
I1
sS'abiy'
p7525
I1
sS'ngpi'
p7526
I9
sS'ngph'
p7527
I6
sS'duob'
p7528
I1
sS'duoc'
p7529
I10
sS'zsdb'
p7530
I1
sS'jcjg'
p7531
I1
sS'abil'
p7532
I2
sS'disi'
p7533
I1
sS'duos'
p7534
I3
sS'aohe'
p7535
I1
sS'uyiy'
p7536
I2
sS'rton'
p7537
I2
sS'iubo'
p7538
I3
sS'fcha'
p7539
I1
sS'deka'
p7540
I1
sS'gynl'
p7541
I1
sS'uyin'
p7542
I1
sS'dtpf'
p7543
I1
sS'yzjp'
p7544
I1
sS'song'
p7545
I14
sS'ureh'
p7546
I2
sS'pcom'
p7547
I7
sS'qwan'
p7548
I1
sS'bcky'
p7549
I1
sS'icai'
p7550
I5
sS'buxb'
p7551
I1
sS'list'
p7552
I1
sS'buxi'
p7553
I2
sS'omvi'
p7554
I1
sS'bovs'
p7555
I1
sS'anao'
p7556
I1
sS'anal'
p7557
I1
sS'atpf'
p7558
I1
sS'hqmm'
p7559
I1
sS'bgjs'
p7560
I1
sS'lbcy'
p7561
I1
sS'hqmi'
p7562
I1
sS'wucn'
p7563
I2
sS'iqip'
p7564
I1
sS'nanj'
p7565
I2
sS'dxuz'
p7566
I2
sS'daot'
p7567
I1
sS'nanc'
p7568
I10
sS'nand'
p7569
I1
sS'nang'
p7570
I2
sS'nany'
p7571
I1
sS'nanx'
p7572
I2
sS'daon'
p7573
I1
sS'aila'
p7574
I2
sS'aile'
p7575
I11
sS'whan'
p7576
I2
sS'nanp'
p7577
I4
sS'daof'
p7578
I2
sS'aili'
p7579
I12
sS'gncn'
p7580
I2
sS'nant'
p7581
I2
sS'daob'
p7582
I1
sS'zqyl'
p7583
I1
sS'wodh'
p7584
I1
sS'neng'
p7585
I3
sS'iwin'
p7586
I1
sS'kjin'
p7587
I1
sS'gaoy'
p7588
I3
sS'roro'
p7589
I1
sS'gfup'
p7590
I12
sS'pwom'
p7591
I2
sS'ehyh'
p7592
I1
sS'mshi'
p7593
I1
sS'zcnw'
p7594
I1
sS'himi'
p7595
I1
sS'iame'
p7596
I2
sS'ehyz'
p7597
I1
sS'hime'
p7598
I3
sS'hccn'
p7599
I11
sS'hima'
p7600
I1
sS'dttq'
p7601
I1
sS'huil'
p7602
I1
sS'huim'
p7603
I1
sS'ujxu'
p7604
I1
sS'huig'
p7605
I2
sS'huid'
p7606
I1
sS'huib'
p7607
I1
sS'szdm'
p7608
I1
sS'huiz'
p7609
I4
sS'huiy'
p7610
I2
sS'huiw'
p7611
I1
sS'huip'
p7612
I1
sS'kmid'
p7613
I1
sS'gtpw'
p7614
I1
sS'iqiw'
p7615
I1
sS'fbhz'
p7616
I1
sS'eptv'
p7617
I1
sS'shco'
p7618
I10
sS'yuco'
p7619
I6
sS'dioe'
p7620
I1
sS'vxiy'
p7621
I2
sS'vxia'
p7622
I2
sS'zwcn'
p7623
I10
sS'ubxz'
p7624
I1
sS'oboy'
p7625
I1
sS'gpho'
p7626
I6
sS'ntqz'
p7627
I1
sS'huma'
p7628
I1
sS'aozu'
p7629
I2
sS'owyo'
p7630
I1
sS'ning'
p7631
I4
sS'aozi'
p7632
I1
sS'ijul'
p7633
I1
sS'enso'
p7634
I1
sS'mgty'
p7635
I1
sS'hvyx'
p7636
I1
sS'ptco'
p7637
I1
sS'yqgw'
p7638
I2
sS'hvyv'
p7639
I1
sS'azuq'
p7640
I2
sS'iong'
p7641
I2
sS'gcyc'
p7642
I1
sS'gwnj'
p7643
I2
sS'nqmr'
p7644
I1
sS'duaa'
p7645
I1
sS'aofe'
p7646
I1
sS'ngzo'
p7647
I2
sS'njxc'
p7648
I1
sS'aofu'
p7649
I2
sS'dqbb'
p7650
I1
sS'hgco'
p7651
I3
sS'uanx'
p7652
I4
sS'uany'
p7653
I2
sS'uanz'
p7654
I4
sS'gkyj'
p7655
I2
sS'uanp'
p7656
I1
sS'uanq'
p7657
I9
sS'uanr'
p7658
I2
sS'uans'
p7659
I2
sS'uant'
p7660
I4
sS'gasd'
p7661
I1
sS'uanw'
p7662
I12
sS'uanh'
p7663
I2
sS'uanj'
p7664
I12
sS'uank'
p7665
I1
sS'uanl'
p7666
I2
sS'uanm'
p7667
I3
sS'numc'
p7668
I1
sS'uana'
p7669
I1
sS'uanc'
p7670
I3
sS'uand'
p7671
I2
sS'uane'
p7672
I2
sS'uanf'
p7673
I3
sS'uang'
p7674
I29
sS'bjfa'
p7675
I2
sS'scsz'
p7676
I8
sS'qror'
p7677
I1
sS'fcom'
p7678
I3
sS'inal'
p7679
I1
sS'vjsp'
p7680
I1
sS'rqtq'
p7681
I3
sS'ghen'
p7682
I2
sS'ding'
p7683
I7
sS'fmyl'
p7684
I8
sS'eroi'
p7685
I2
sS'bich'
p7686
I1
sS'xuan'
p7687
I7
sS'ziuf'
p7688
I1
sS'uzua'
p7689
I1
sS'htou'
p7690
I1
sS'hzqy'
p7691
I1
sS'omwa'
p7692
I1
sS'mefb'
p7693
I1
sS'scom'
p7694
I74
sS'mzsd'
p7695
I1
sS'prab'
p7696
I1
sS'ujio'
p7697
I10
sS'dliy'
p7698
I1
sS'jbmc'
p7699
I1
sS'gqsi'
p7700
I1
sS'eizh'
p7701
I2
sS'ceag'
p7702
I1
sS'ulec'
p7703
I84
sS'clmc'
p7704
I1
sS'iwjm'
p7705
I1
sS'guaq'
p7706
I1
sS'clme'
p7707
I1
sS'neig'
p7708
I1
sS'jzjg'
p7709
I1
sS'fkcn'
p7710
I5
sS'ikex'
p7711
I1
sS'jzjc'
p7712
I3
sS'jfac'
p7713
I2
sS'gzui'
p7714
I2
sS'lezh'
p7715
I1
sS'hilt'
p7716
I1
sS'hili'
p7717
I1
sS'wwja'
p7718
I1
sS'mysm'
p7719
I5
sS'ehxu'
p7720
I1
sS'wwjg'
p7721
I2
sS'etao'
p7722
I1
sS'gzuq'
p7723
I1
sS'dunj'
p7724
I2
sS'rkyj'
p7725
I1
sS'usxu'
p7726
I1
sS'swom'
p7727
I1
sS'gfug'
p7728
I1
sS'gyon'
p7729
I10
sS'dung'
p7730
I1
sS'gyou'
p7731
I1
sS'feyb'
p7732
I1
sS'gfus'
p7733
I2
sS'dunv'
p7734
I1
sS'bash'
p7735
I1
sS'uron'
p7736
I10
sS'inhn'
p7737
I2
sS'inhu'
p7738
I2
sS'yziw'
p7739
I1
sS'deji'
p7740
I2
sS'bcpl'
p7741
I1
sS'ulep'
p7742
I2
sS'inae'
p7743
I2
sS'jwan'
p7744
I1
sS'usda'
p7745
I7
sS'ulev'
p7746
I2
sS'ffqd'
p7747
I6
sS'uley'
p7748
I1
sS'jhch'
p7749
I10
sS'uleb'
p7750
I5
sS'usdw'
p7751
I1
sS'uled'
p7752
I2
sS'uleg'
p7753
I1
sS'uleh'
p7754
I2
sS'ulej'
p7755
I2
sS'ulek'
p7756
I2
sS'ulel'
p7757
I1
sS'byfh'
p7758
I1
sS'ulen'
p7759
I2
sS'fuya'
p7760
I1
sS'yfmy'
p7761
I1
sS'vhjp'
p7762
I1
sS'nian'
p7763
I3
sS'enre'
p7764
I1
sS'enrb'
p7765
I1
sS'zuix'
p7766
I1
sS'xilu'
p7767
I2
sS'xilt'
p7768
I1
sS'esan'
p7769
I2
sS'sdzo'
p7770
I1
sS'ascs'
p7771
I2
sS'sdzs'
p7772
I20
sS'ascn'
p7773
I1
sS'guoh'
p7774
I2
sS'spqx'
p7775
I4
sS'guoj'
p7776
I27
sS'guon'
p7777
I1
sS'lvde'
p7778
I2
sS'guog'
p7779
I1
sS'onal'
p7780
I1
sS'unrt'
p7781
I2
sS'znmw'
p7782
I1
sS'danj'
p7783
I1
sS'vpji'
p7784
I1
sS'nbei'
p7785
I1
sS'onag'
p7786
I1
sS'danc'
p7787
I3
sS'nben'
p7788
I1
sS'guov'
p7789
I1
sS'igou'
p7790
I3
sS'ltuj'
p7791
I3
sS'igor'
p7792
I1
sS'ipjh'
p7793
I10
sS'nnam'
p7794
I1
sS'nnal'
p7795
I3
sS'galc'
p7796
I1
sS'jicn'
p7797
I4
sS'yeer'
p7798
I10
sS'ungu'
p7799
I2
sS'bjgy'
p7800
I2
sS'arky'
p7801
I1
sS'unga'
p7802
I2
sS'keji'
p7803
I5
sS'amad'
p7804
I1
sS'huho'
p7805
I2
sS'dtut'
p7806
I1
sS'seqi'
p7807
I3
sS'amaj'
p7808
I2
sS'dscn'
p7809
I1
sS'ifus'
p7810
I10
sS'ifup'
p7811
I2
sS'ifux'
p7812
I3
sS'watp'
p7813
I1
sS'ujwa'
p7814
I1
sS'qiut'
p7815
I3
sS'qiuw'
p7816
I1
sS'qiuq'
p7817
I1
sS'jgei'
p7818
I2
sS'olco'
p7819
I10
sS'qiuy'
p7820
I1
sS'qiux'
p7821
I2
sS'cyfh'
p7822
I2
sS'qiuz'
p7823
I2
sS'qiud'
p7824
I1
sS'qiug'
p7825
I2
sS'qiuf'
p7826
I3
sS'psne'
p7827
I1
sS'qiub'
p7828
I2
sS'qium'
p7829
I2
sS'qiul'
p7830
I2
sS'gtwc'
p7831
I1
sS'lxuz'
p7832
I1
sS'qiuk'
p7833
I1
sS'hiba'
p7834
I1
sS'gnin'
p7835
I1
sS'hsco'
p7836
I2
sS'aifh'
p7837
I4
sS'lcji'
p7838
I1
sS'nhcc'
p7839
I1
sS'upai'
p7840
I2
sS'upan'
p7841
I1
sS'cebg'
p7842
I1
sS'quew'
p7843
I1
sS'bstb'
p7844
I1
sS'hesd'
p7845
I1
sS'afsd'
p7846
I5
sS'nqiu'
p7847
I7
sS'ezmi'
p7848
I1
sS'dntq'
p7849
I1
sS'lyqq'
p7850
I1
sS'wxcn'
p7851
I1
sS'lmei'
p7852
I2
sS'geli'
p7853
I1
sS'azho'
p7854
I13
sS'diqu'
p7855
I1
sS'rtmi'
p7856
I20
sS'diqi'
p7857
I3
sS'azhu'
p7858
I2
sS'cwan'
p7859
I2
sS'ingl'
p7860
I24
sS'ingm'
p7861
I6
sS'ingn'
p7862
I1
sS'ingh'
p7863
I6
sS'uyou'
p7864
I3
sS'ingk'
p7865
I36
sS'ingd'
p7866
I4
sS'inge'
p7867
I2
sS'ingf'
p7868
I6
sS'mfya'
p7869
I10
sS'gepi'
p7870
I1
sS'ingb'
p7871
I8
sS'ingc'
p7872
I17
sS'gepv'
p7873
I1
sS'ingx'
p7874
I7
sS'ingy'
p7875
I15
sS'ingz'
p7876
I4
sS'ingt'
p7877
I9
sS'ingu'
p7878
I5
sS'ingw'
p7879
I5
sS'ingp'
p7880
I5
sS'ingq'
p7881
I6
sS'ingr'
p7882
I14
sS'onai'
p7883
I1
sS'idew'
p7884
I1
sS'qwcn'
p7885
I2
sS'hnyf'
p7886
I10
sS'hthu'
p7887
I1
sS'rehs'
p7888
I2
sS'guos'
p7889
I1
sS'lccn'
p7890
I18
sS'gnba'
p7891
I1
sS'nghn'
p7892
I5
sS'wtkt'
p7893
I2
sS'botu'
p7894
I1
sS'ejiv'
p7895
I1
sS'ejiu'
p7896
I3
sS'hewa'
p7897
I1
sS'ejiq'
p7898
I1
sS'hewj'
p7899
I5
sS'asdw'
p7900
I1
sS'ejif'
p7901
I1
sS'mhlv'
p7902
I1
sS'ejic'
p7903
I4
sS'ejia'
p7904
I6
sS'cqwa'
p7905
I1
sS'ejij'
p7906
I1
sS'ayfa'
p7907
I6
sS'ghec'
p7908
I1
sS'gner'
p7909
I2
sS'znne'
p7910
I8
sS'aiju'
p7911
I1
sS'aiji'
p7912
I32
sS'otai'
p7913
I1
sS'gnen'
p7914
I1
sS'airt'
p7915
I2
sS'ifhx'
p7916
I5
sS'imai'
p7917
I2
sS'qjpb'
p7918
I1
sS'nnan'
p7919
I2
sS'pgua'
p7920
I1
sS'ebiy'
p7921
I1
sS'tjso'
p7922
I1
sS'aboc'
p7923
I1
sS'leyo'
p7924
I3
sS'wwkt'
p7925
I9
sS'nghu'
p7926
I16
sS'ahan'
p7927
I2
sS'ahao'
p7928
I2
sS'qzso'
p7929
I1
sS'fapi'
p7930
I7
sS'nzfs'
p7931
I10
sS'ouyu'
p7932
I4
sS'snww'
p7933
I1
sS'tuuf'
p7934
I1
sS'ynly'
p7935
I1
sS'huwa'
p7936
I3
sS'smcn'
p7937
I1
sS'dtvf'
p7938
I1
sS'ouyi'
p7939
I1
sS'ebuw'
p7940
I1
sS'oqqj'
p7941
I2
sS'uzuh'
p7942
I1
sS'igon'
p7943
I4
sS'shat'
p7944
I1
sS'ddwa'
p7945
I1
sS'shax'
p7946
I1
sS'wwwl'
p7947
I1
sS'wwwk'
p7948
I9
sS'wwwj'
p7949
I3
sS'wwwi'
p7950
I2
sS'wwwh'
p7951
I3
sS'shab'
p7952
I1
sS'gtvi'
p7953
I1
sS'wwws'
p7954
I2
sS'wwwq'
p7955
I1
sS'pieg'
p7956
I1
sS'shan'
p7957
I28
sS'shao'
p7958
I3
sS'wwwy'
p7959
I1
sS'yafm'
p7960
I1
sS'obic'
p7961
I1
sS'usek'
p7962
I1
sS'yuan'
p7963
I6
sS'uwus'
p7964
I2
sS'btvg'
p7965
I1
sS'qtub'
p7966
I1
sS'tica'
p7967
I1
sS'fuxk'
p7968
I1
sS'mllj'
p7969
I1
sS'fuxi'
p7970
I8
sS'iaon'
p7971
I3
sS'icit'
p7972
I1
sS'owww'
p7973
I2
sS'muxu'
p7974
I1
sS'xisk'
p7975
I1
sS'ijia'
p7976
I36
sS'ieru'
p7977
I1
sS'vdwa'
p7978
I2
sS'rduo'
p7979
I1
sS'ierd'
p7980
I1
sS'ftxc'
p7981
I10
sS'bssz'
p7982
I1
sS'iohe'
p7983
I1
sS'iana'
p7984
I1
sS'ianb'
p7985
I4
sS'njzd'
p7986
I1
sS'aavf'
p7987
I1
sS'kzfu'
p7988
I1
sS'nfen'
p7989
I2
sS'lhvi'
p7990
I1
sS'jjhy'
p7991
I1
sS'gban'
p7992
I8
sS'gbao'
p7993
I1
sS'qlsc'
p7994
I1
sS'zded'
p7995
I1
sS'game'
p7996
I1
sS'nfei'
p7997
I5
sS'vfux'
p7998
I1
sS'ijid'
p7999
I1
sS'yezh'
p8000
I6
sS'jjhe'
p8001
I1
sS'gami'
p8002
I2
sS'qrgm'
p8003
I1
sS'jotw'
p8004
I10
sS'unfu'
p8005
I1
sS'tyut'
p8006
I8
sS'unfe'
p8007
I3
sS'jotn'
p8008
I1
sS'tnlj'
p8009
I1
sS'nbdc'
p8010
I1
sS'fjml'
p8011
I1
sS'lipi'
p8012
I2
sS'liph'
p8013
I1
sS'tnla'
p8014
I2
sS'ttsu'
p8015
I1
sS'vbin'
p8016
I3
sS'ndkq'
p8017
I1
sS'heji'
p8018
I4
sS'ojoj'
p8019
I1
sS'ecnw'
p8020
I1
sS'iany'
p8021
I11
sS'luxu'
p8022
I1
sS'boke'
p8023
I3
sS'edhy'
p8024
I1
sS'iwjo'
p8025
I2
sS'anne'
p8026
I4
sS'nmag'
p8027
I1
sS'weiy'
p8028
I2
sS'gmax'
p8029
I1
sS'rdai'
p8030
I1
sS'weis'
p8031
I1
sS'gmap'
p8032
I2
sS'nyou'
p8033
I2
sS'gmai'
p8034
I8
sS'weif'
p8035
I4
sS'weid'
p8036
I1
sS'weic'
p8037
I4
sS'tzmy'
p8038
I1
sS'qing'
p8039
I26
sS'kyuo'
p8040
I1
sS'qinh'
p8041
I1
sS'iazu'
p8042
I2
sS'iazh'
p8043
I1
sS'htcy'
p8044
I2
sS'iaza'
p8045
I3
sS'myqa'
p8046
I1
sS'jzdy'
p8047
I10
sS'gqil'
p8048
I1
sS'gqia'
p8049
I2
sS'cpla'
p8050
I3
sS'gqix'
p8051
I1
sS'gqiq'
p8052
I2
sS'gqip'
p8053
I12
sS'iaot'
p8054
I2
sS'jzdc'
p8055
I7
sS'ehza'
p8056
I1
sS'gzwg'
p8057
I1
sS'long'
p8058
I40
sS'ouxi'
p8059
I24
sS'husp'
p8060
I1
sS'pwha'
p8061
I2
sS'ehzz'
p8062
I1
sS'wwhg'
p8063
I3
sS'etcn'
p8064
I1
sS'etco'
p8065
I9
sS'gyib'
p8066
I1
sS'gyik'
p8067
I7
sS'hain'
p8068
I1
sS'zbon'
p8069
I1
sS'gyin'
p8070
I7
sS'jrtz'
p8071
I1
sS'dipi'
p8072
I1
sS'ewxk'
p8073
I2
sS'dule'
p8074
I2
sS'hipi'
p8075
I5
sS'gyix'
p8076
I1
sS'uszb'
p8077
I1
sS'nqsa'
p8078
I1
sS'dehy'
p8079
I2
sS'dehz'
p8080
I2
sS'iure'
p8081
I2
sS'infe'
p8082
I2
sS'dehv'
p8083
I6
sS'wljy'
p8084
I1
sS'uoba'
p8085
I2
sS'pres'
p8086
I11
sS'husl'
p8087
I1
sS'infu'
p8088
I1
sS'uylc'
p8089
I1
sS'sheq'
p8090
I1
sS'boqx'
p8091
I2
sS'escs'
p8092
I1
sS'dilu'
p8093
I1
sS'bbuu'
p8094
I1
sS'ubei'
p8095
I1
sS'haiy'
p8096
I1
sS'oaea'
p8097
I1
sS'edfa'
p8098
I3
sS'edfb'
p8099
I7
sS'enpi'
p8100
I1
sS'tfuz'
p8101
I10
sS'ozha'
p8102
I2
sS'ozhe'
p8103
I2
sS'gxuz'
p8104
I1
sS'bcom'
p8105
I14
sS'vzfy'
p8106
I1
sS'ostb'
p8107
I1
sS'gvwj'
p8108
I1
sS'ozhu'
p8109
I2
sS'gxun'
p8110
I1
sS'bfmy'
p8111
I2
sS'kjjg'
p8112
I2
sS'gduq'
p8113
I2
sS'aiku'
p8114
I3
sS'gduy'
p8115
I2
sS'vicp'
p8116
I4
sS'gdub'
p8117
I2
sS'gduc'
p8118
I2
sS'chsc'
p8119
I1
sS'gdun'
p8120
I1
sS'gduo'
p8121
I1
sS'aika'
p8122
I6
sS'onca'
p8123
I1
sS'once'
p8124
I2
sS'zmid'
p8125
I1
sS'eyyt'
p8126
I1
sS'unec'
p8127
I2
sS'zmin'
p8128
I1
sS'aewe'
p8129
I1
sS'unei'
p8130
I1
sS'unet'
p8131
I8
sS'katk'
p8132
I18
sS'jimi'
p8133
I1
sS'cqls'
p8134
I1
sS'igin'
p8135
I1
sS'qxuz'
p8136
I1
sS'tytp'
p8137
I1
sS'tytr'
p8138
I1
sS'kedv'
p8139
I2
sS'nkai'
p8140
I3
sS'nkao'
p8141
I1
sS'meya'
p8142
I5
sS'ariv'
p8143
I5
sS'wavj'
p8144
I1
sS'gink'
p8145
I1
sS'ginc'
p8146
I10
sS'tutb'
p8147
I1
sS'gtuj'
p8148
I1
sS'gtui'
p8149
I1
sS'mwwa'
p8150
I2
sS'wzco'
p8151
I10
sS'hema'
p8152
I2
sS'tutz'
p8153
I1
sS'tpfz'
p8154
I10
sS'ouzh'
p8155
I9
sS'utyc'
p8156
I8
sS'ouzo'
p8157
I1
sS'lqcn'
p8158
I1
sS'gtuy'
p8159
I1
sS'akua'
p8160
I2
sS'olai'
p8161
I1
sS'olan'
p8162
I1
sS'olao'
p8163
I1
sS'ufup'
p8164
I2
sS'akus'
p8165
I1
sS'glfv'
p8166
I2
sS'ryaz'
p8167
I1
sS'oefe'
p8168
I1
sS'bhzt'
p8169
I1
sS'ocha'
p8170
I2
sS'orot'
p8171
I1
sS'tmik'
p8172
I20
sS'ansu'
p8173
I1
sS'uvip'
p8174
I3
sS'stdc'
p8175
I10
sS'yihc'
p8176
I3
sS'veby'
p8177
I1
sS'fdxu'
p8178
I1
sS'qion'
p8179
I1
sS'bwjd'
p8180
I1
sS'yish'
p8181
I1
sS'nhai'
p8182
I1
sS'bkyj'
p8183
I1
sS'yuze'
p8184
I4
sS'nzzy'
p8185
I1
sS'bjlt'
p8186
I3
sS'ekss'
p8187
I1
sS'yuzh'
p8188
I1
sS'iesh'
p8189
I2
sS'iesa'
p8190
I2
sS'hyvy'
p8191
I1
sS'nfkr'
p8192
I10
sS'uami'
p8193
I2
sS'ngfu'
p8194
I14
sS'vshe'
p8195
I2
sS'ajia'
p8196
I5
sS'genj'
p8197
I1
sS'hshg'
p8198
I1
sS'eyin'
p8199
I1
sS'afmf'
p8200
I8
sS'ducn'
p8201
I9
sS'duco'
p8202
I20
sS'duch'
p8203
I8
sS'anqi'
p8204
I12
sS'gerc'
p8205
I1
sS'ueiu'
p8206
I4
sS'gere'
p8207
I1
sS'ykmi'
p8208
I1
sS'xizh'
p8209
I1
sS'uoco'
p8210
I10
sS'jxcn'
p8211
I2
sS'erlu'
p8212
I1
sS'xunl'
p8213
I1
sS'xamb'
p8214
I1
sS'igua'
p8215
I6
sS'ecom'
p8216
I44
sS'econ'
p8217
I2
sS'heis'
p8218
I1
sS'igui'
p8219
I1
sS'xami'
p8220
I1
sS'sorc'
p8221
I1
sS'xunw'
p8222
I3
sS'vbjc'
p8223
I1
sS'heic'
p8224
I1
sS'eiyo'
p8225
I8
sS'eiyi'
p8226
I6
sS'bojc'
p8227
I2
sS'baic'
p8228
I1
sS'okti'
p8229
I1
sS'anme'
p8230
I3
sS'aihe'
p8231
I1
sS'aiha'
p8232
I2
sS'osua'
p8233
I1
sS'aiho'
p8234
I2
sS'sudu'
p8235
I2
sS'dxqp'
p8236
I1
sS'xmin'
p8237
I1
sS'osus'
p8238
I2
sS'zmtm'
p8239
I1
sS'jfdk'
p8240
I1
sS'ovsp'
p8241
I1
sS'uwjo'
p8242
I3
sS'ovst'
p8243
I1
sS'elur'
p8244
I2
sS'zddq'
p8245
I1
sS'mjpl'
p8246
I1
sS'iwuy'
p8247
I1
sS'aybx'
p8248
I1
sS'imgy'
p8249
I1
sS'cpco'
p8250
I4
sS'gjwo'
p8251
I1
sS'msdw'
p8252
I1
sS'ikuj'
p8253
I4
sS'zatf'
p8254
I1
sS'ikua'
p8255
I3
sS'gren'
p8256
I13
sS'ootn'
p8257
I1
sS'meiz'
p8258
I1
sS'wwin'
p8259
I1
sS'wwic'
p8260
I1
sS'tuku'
p8261
I1
sS'irya'
p8262
I1
sS'elia'
p8263
I3
sS'inen'
p8264
I2
sS'mwxu'
p8265
I1
sS'szxz'
p8266
I1
sS'elij'
p8267
I1
sS'tswj'
p8268
I1
sS'eliw'
p8269
I1
sS'hocn'
p8270
I1
sS'wkes'
p8271
I1
sS'eliy'
p8272
I2
sS'eliz'
p8273
I1
sS'nput'
p8274
I1
sS'zwgf'
p8275
I1
sS'lech'
p8276
I85
sS'glec'
p8277
I1
sS'anji'
p8278
I27
sS'gpdu'
p8279
I1
sS'nljy'
p8280
I1
sS'wyfh'
p8281
I1
sS'npuj'
p8282
I1
sS'ghub'
p8283
I1
sS'ntuj'
p8284
I1
sS'zswc'
p8285
I20
sS'ntud'
p8286
I2
sS'ntuy'
p8287
I1
sS'jmhe'
p8288
I1
sS'pinr'
p8289
I2
sS'jcrs'
p8290
I20
sS'kgcn'
p8291
I3
sS'ntuu'
p8292
I1
sS'diku'
p8293
I2
sS'fuzh'
p8294
I11
sS'qsao'
p8295
I1
sS'hwwa'
p8296
I2
sS'enww'
p8297
I1
sS'qbbf'
p8298
I1
sS'ijyo'
p8299
I1
sS'haer'
p8300
I4
sS'oasc'
p8301
I1
sS'illi'
p8302
I1
sS'okec'
p8303
I2
sS'kfcn'
p8304
I2
sS'okes'
p8305
I1
sS'aobe'
p8306
I1
sS'gchn'
p8307
I1
sS'aoba'
p8308
I6
sS'aobo'
p8309
I3
sS'xzpl'
p8310
I1
sS'wico'
p8311
I1
sS'ndux'
p8312
I1
sS'ogua'
p8313
I1
sS'gaox'
p8314
I1
sS'gaoz'
p8315
I1
sS'oguo'
p8316
I2
sS'yoru'
p8317
I1
sS'nduw'
p8318
I1
sS'gaom'
p8319
I3
sS'undu'
p8320
I1
sS'nduo'
p8321
I1
sS'ndun'
p8322
I3
sS'ktfu'
p8323
I10
sS'ndub'
p8324
I3
sS'zdco'
p8325
I7
sS'gaob'
p8326
I2
sS'caiw'
p8327
I4
sS'cait'
p8328
I1
sS'cais'
p8329
I2
sS'pvip'
p8330
I2
sS'caiq'
p8331
I1
sS'caip'
p8332
I7
sS'iton'
p8333
I2
sS'caiz'
p8334
I1
sS'caiy'
p8335
I4
sS'bjby'
p8336
I1
sS'caig'
p8337
I4
sS'caif'
p8338
I1
sS'caid'
p8339
I6
sS'caic'
p8340
I5
sS'ywan'
p8341
I2
sS'pvic'
p8342
I1
sS'nvsh'
p8343
I2
sS'cail'
p8344
I2
sS'caik'
p8345
I4
sS'caij'
p8346
I4
sS'joza'
p8347
I1
sS'echa'
p8348
I11
sS'ndin'
p8349
I1
sS'anla'
p8350
I2
sS'yong'
p8351
I25
sS'eybc'
p8352
I1
sS'echi'
p8353
I1
sS'twan'
p8354
I1
sS'hehu'
p8355
I1
sS'anlt'
p8356
I1
sS'echu'
p8357
I3
sS'twar'
p8358
I2
sS'ysms'
p8359
I5
sS'xumq'
p8360
I1
sS'mebo'
p8361
I1
sS'ojix'
p8362
I1
sS'ojiy'
p8363
I10
sS'ojiz'
p8364
I1
sS'ojia'
p8365
I14
sS'ojib'
p8366
I2
sS'huae'
p8367
I2
sS'ojid'
p8368
I1
sS'ojie'
p8369
I1
sS'hhsz'
p8370
I1
sS'ojij'
p8371
I1
sS'ojik'
p8372
I1
sS'ojin'
p8373
I1
sS'huac'
p8374
I1
sS'nyan'
p8375
I10
sS'ssor'
p8376
I1
sS'jule'
p8377
I1
sS'stco'
p8378
I1
sS'xnxp'
p8379
I1
sS'ctnd'
p8380
I2
sS'utzf'
p8381
I1
sS'julv'
p8382
I2
sS'nyap'
p8383
I10
sS'zfmy'
p8384
I1
sS'huam'
p8385
I2
sS'nhnz'
p8386
I4
sS'fhan'
p8387
I1
sS'qilj'
p8388
I1
sS'qill'
p8389
I1
sS'uzou'
p8390
I2
sS'tbbx'
p8391
I1
sS'ufhx'
p8392
I1
sS'vqqf'
p8393
I1
sS'huai'
p8394
I1
sS'zfmf'
p8395
I1
sS'asai'
p8396
I1
sS'zjin'
p8397
I1
sS'mtkh'
p8398
I1
sS'mpit'
p8399
I1
sS'eltj'
p8400
I2
sS'ebvi'
p8401
I2
sS'ppco'
p8402
I2
sS'hxsy'
p8403
I6
sS'unji'
p8404
I6
sS'ngsi'
p8405
I3
sS'etep'
p8406
I1
sS'aqip'
p8407
I1
sS'gzqc'
p8408
I1
sS'hgvp'
p8409
I1
sS'efch'
p8410
I1
sS'xsco'
p8411
I10
sS'ngsm'
p8412
I1
sS'iqxw'
p8413
I1
sS'gcao'
p8414
I1
sS'gcai'
p8415
I5
sS'kuji'
p8416
I6
sS'dubo'
p8417
I8
sS'azma'
p8418
I1
sS'zbiz'
p8419
I10
sS'lkhw'
p8420
I1
sS'duba'
p8421
I1
sS'indu'
p8422
I1
sS'fang'
p8423
I14
sS'nqua'
p8424
I2
sS'gepc'
p8425
I2
sS'uodu'
p8426
I2
sS'inde'
p8427
I10
sS'inda'
p8428
I5
sS'txuz'
p8429
I1
sS'uoda'
p8430
I1
sS'deng'
p8431
I4
sS'nmin'
p8432
I12
sS'vhfm'
p8433
I1
sS'diji'
p8434
I1
sS'ingg'
p8435
I4
sS'ngga'
p8436
I3
sS'gexu'
p8437
I1
sS'nggn'
p8438
I1
sS'nggo'
p8439
I1
sS'inga'
p8440
I1
sS'bhex'
p8441
I1
sS'tktt'
p8442
I1
sS'nggp'
p8443
I1
sS'yaec'
p8444
I2
sS'qmid'
p8445
I1
sS'bhes'
p8446
I1
sS'yuda'
p8447
I1
sS'ayeg'
p8448
I2
sS'envx'
p8449
I2
sS'edhz'
p8450
I1
sS'ayec'
p8451
I2
sS'bjlc'
p8452
I2
sS'bmco'
p8453
I1
sS'xipi'
p8454
I1
sS'btut'
p8455
I1
sS'oneg'
p8456
I10
sS'daji'
p8457
I1
sS'awww'
p8458
I1
sS'made'
p8459
I1
sS'onet'
p8460
I9
sS'qfya'
p8461
I1
sS'sdfo'
p8462
I2
sS'sput'
p8463
I1
sS'nkfc'
p8464
I1
sS'zige'
p8465
I2
sS'ings'
p8466
I8
sS'cbgj'
p8467
I1
sS'zigo'
p8468
I1
sS'view'
p8469
I5
sS'unke'
p8470
I1
sS'jiou'
p8471
I10
sS'yeyo'
p8472
I1
sS'qxwy'
p8473
I4
sS'itnl'
p8474
I2
sS'nxbs'
p8475
I1
sS'teng'
p8476
I1
sS'kefu'
p8477
I1
sS'isti'
p8478
I1
sS'fswo'
p8479
I1
sS'unma'
p8480
I3
sS'bjco'
p8481
I1
sS'nkiz'
p8482
I1
sS'zoud'
p8483
I1
sS'exam'
p8484
I1
sS'amen'
p8485
I2
sS'elho'
p8486
I1
sS'magu'
p8487
I2
sS'amef'
p8488
I1
sS'zous'
p8489
I7
sS'tuji'
p8490
I10
sS'lebe'
p8491
I1
sS'hitu'
p8492
I3
sS'leba'
p8493
I1
sS'roie'
p8494
I2
sS'lebo'
p8495
I4
sS'iaky'
p8496
I1
sS'gpcn'
p8497
I1
sS'qiqi'
p8498
I5
sS'npra'
p8499
I1
sS'lebu'
p8500
I1
sS'hiti'
p8501
I3
sS'jgyi'
p8502
I7
sS'uces'
p8503
I11
sS'yiqi'
p8504
I1
sS'stba'
p8505
I9
sS'wzyc'
p8506
I1
sS'ocnx'
p8507
I1
sS'iayu'
p8508
I1
sS'ucea'
p8509
I1
sS'kuan'
p8510
I7
sS'ucej'
p8511
I1
sS'uceh'
p8512
I1
sS'xuwa'
p8513
I1
sS'baol'
p8514
I2
sS'nhom'
p8515
I1
sS'fbqt'
p8516
I1
sS'iaku'
p8517
I2
sS'mgyu'
p8518
I1
sS'ceng'
p8519
I3
sS'cene'
p8520
I1
sS'mika'
p8521
I20
sS'twcn'
p8522
I1
sS'yuxi'
p8523
I1
sS'ptxu'
p8524
I1
sS'hytp'
p8525
I1
sS'ewai'
p8526
I2
sS'xfya'
p8527
I1
sS'uaco'
p8528
I1
sS'sxiy'
p8529
I2
sS'aocz'
p8530
I1
sS'kavi'
p8531
I1
sS'lcco'
p8532
I6
sS'aoch'
p8533
I2
sS'ngzq'
p8534
I1
sS'ngzu'
p8535
I3
sS'dema'
p8536
I1
sS'zbjg'
p8537
I1
sS'ngzc'
p8538
I2
sS'ngza'
p8539
I1
sS'ngze'
p8540
I2
sS'biya'
p8541
I1
sS'uiwa'
p8542
I2
sS'ngzh'
p8543
I30
sS'eptc'
p8544
I1
sS'iuqu'
p8545
I1
sS'xgum'
p8546
I1
sS'xxzw'
p8547
I1
sS'biye'
p8548
I4
sS'incc'
p8549
I10
sS'inch'
p8550
I3
sS'iuqi'
p8551
I1
sS'getu'
p8552
I1
sS'anka'
p8553
I3
sS'ukuz'
p8554
I1
sS'ttvi'
p8555
I1
sS'hzzb'
p8556
I1
sS'ukuj'
p8557
I2
sS'lskw'
p8558
I1
sS'ankz'
p8559
I1
sS'fvip'
p8560
I2
sS'xuli'
p8561
I1
sS'ukua'
p8562
I2
sS'dwcs'
p8563
I1
sS'mech'
p8564
I10
sS'ackc'
p8565
I1
sS'lcom'
p8566
I13
sS'nsrf'
p8567
I3
sS'taip'
p8568
I2
sS'uguc'
p8569
I2
sS'uguf'
p8570
I1
sS'bohe'
p8571
I2
sS'uguj'
p8572
I1
sS'uguo'
p8573
I2
sS'sibl'
p8574
I1
sS'zbdx'
p8575
I1
sS'dail'
p8576
I8
sS'oyaw'
p8577
I1
sS'daik'
p8578
I4
sS'sufe'
p8579
I1
sS'umal'
p8580
I1
sS'hzfm'
p8581
I1
sS'daib'
p8582
I5
sS'gvtp'
p8583
I1
sS'daiy'
p8584
I27
sS'aifu'
p8585
I3
sS'ozuo'
p8586
I2
sS'oyao'
p8587
I2
sS'oyan'
p8588
I1
sS'jarl'
p8589
I1
sS'ovuc'
p8590
I1
sS'glqc'
p8591
I1
sS'zife'
p8592
I2
sS'uwuc'
p8593
I2
sS'nbao'
p8594
I3
sS'qqmg'
p8595
I1
sS'fovb'
p8596
I1
sS'uwuj'
p8597
I1
sS'iwww'
p8598
I4
sS'utao'
p8599
I3
sS'zqwj'
p8600
I1
sS'qqmw'
p8601
I1
sS'imeb'
p8602
I1
sS'elwk'
p8603
I1
sS'imeh'
p8604
I2
sS'iufd'
p8605
I9
sS'ahen'
p8606
I1
sS'absd'
p8607
I1
sS'xxbx'
p8608
I1
sS'tlem'
p8609
I1
sS'rotn'
p8610
I1
sS'etdb'
p8611
I1
sS'oziu'
p8612
I1
sS'shec'
p8613
I20
sS'shen'
p8614
I26
sS'lfvi'
p8615
I2
sS'dbyq'
p8616
I2
sS'sheh'
p8617
I1
sS'hush'
p8618
I4
sS'homo'
p8619
I1
sS'iyey'
p8620
I1
sS'iyez'
p8621
I4
sS'tuij'
p8622
I1
sS'home'
p8623
I10
sS'husd'
p8624
I7
sS'shex'
p8625
I1
sS'leda'
p8626
I2
sS'wwsn'
p8627
I1
sS'ofup'
p8628
I2
sS'ofuw'
p8629
I2
sS'wwsz'
p8630
I1
sS'rstb'
p8631
I1
sS'wmin'
p8632
I1
sS'wjac'
p8633
I1
sS'nvhe'
p8634
I1
sS'enuf'
p8635
I1
sS'vvqb'
p8636
I1
sS'ngfe'
p8637
I2
sS'ngfc'
p8638
I1
sS'ngfa'
p8639
I7
sS'enum'
p8640
I1
sS'qpyx'
p8641
I1
sS'yuew'
p8642
I1
sS'enuv'
p8643
I1
sS'oben'
p8644
I1
sS'yfhs'
p8645
I10
sS'ngfy'
p8646
I1
sS'xtls'
p8647
I1
sS'asho'
p8648
I2
sS'ashi'
p8649
I2
sS'ashc'
p8650
I10
sS'qtqp'
p8651
I3
sS'xiwa'
p8652
I1
sS'yuyi'
p8653
I2
sS'laoh'
p8654
I1
sS'wszc'
p8655
I1
sS'dnqq'
p8656
I1
sS'plxu'
p8657
I1
sS'yuyu'
p8658
I1
sS'bsoj'
p8659
I1
sS'ingj'
p8660
I7
sS'laot'
p8661
I2
sS'jing'
p8662
I53
sS'jina'
p8663
I1
sS'appy'
p8664
I1
sS'jinb'
p8665
I4
sS'jinm'
p8666
I1
sS'aolu'
p8667
I1
sS'jjsn'
p8668
I1
sS'jinh'
p8669
I3
sS'jinj'
p8670
I2
sS'jspq'
p8671
I1
sS'jint'
p8672
I2
sS'jinw'
p8673
I2
sS'aolo'
p8674
I2
sS'jinq'
p8675
I5
sS'aoli'
p8676
I1
sS'jins'
p8677
I3
sS'jiny'
p8678
I1
sS'aola'
p8679
I3
sS'jinz'
p8680
I5
sS'ogsa'
p8681
I6
sS'efbc'
p8682
I1
sS'ogsh'
p8683
I1
sS'unjc'
p8684
I2
sS'gtao'
p8685
I2
sS'zyco'
p8686
I1
sS'gksc'
p8687
I1
sS'ipqi'
p8688
I20
sS'ruzc'
p8689
I1
sS'ktdj'
p8690
I20
sS'itik'
p8691
I2
sS'vpsn'
p8692
I1
sS'itin'
p8693
I3
sS'sgmi'
p8694
I1
sS'itia'
p8695
I1
sS'vbky'
p8696
I1
sS'tzmi'
p8697
I1
sS'cakn'
p8698
I1
sS'bjlj'
p8699
I1
sS'tema'
p8700
I1
sS'pmhs'
p8701
I1
sS'yjpb'
p8702
I2
sS'anjc'
p8703
I2
sS'ndon'
p8704
I2
sS'izcc'
p8705
I3
sS'erit'
p8706
I1
sS'njul'
p8707
I2
sS'erir'
p8708
I1
sS'pcde'
p8709
I1
sS'anjz'
p8710
I1
sS'erib'
p8711
I1
sS'pdue'
p8712
I1
sS'pvsg'
p8713
I1
sS'gmen'
p8714
I1
sS'kans'
p8715
I1
sS'sico'
p8716
I6
sS'ievs'
p8717
I1
sS'sich'
p8718
I6
sS'idde'
p8719
I1
sS'rbin'
p8720
I2
sS'stat'
p8721
I1
sS'star'
p8722
I1
sS'ocom'
p8723
I10
sS'nedu'
p8724
I10
sS'oomk'
p8725
I1
sS'qaym'
p8726
I1
sS'dylc'
p8727
I1
sS'fvub'
p8728
I1
sS'qiji'
p8729
I1
sS'qunr'
p8730
I2
sS'quns'
p8731
I1
sS'ezhe'
p8732
I8
sS'podi'
p8733
I4
sS'ezhi'
p8734
I3
sS'pode'
p8735
I6
sS'ezho'
p8736
I7
sS'kaib'
p8737
I7
sS'tvip'
p8738
I2
sS'rfpw'
p8739
I3
sS'ezhu'
p8740
I2
sS'lima'
p8741
I1
sS'yqap'
p8742
I1
sS'qigu'
p8743
I3
stRp8744
a.